GAS LISTING /tmp/ccQOLE7E.s 			page 1


   1              		.file	"_sem.cpp"
   2              		.option pic
   3              		.option norelax
   4              		.text
   5              	.Ltext0:
   6              		.align	2
   7              		.globl	_ZN4_sem7deblockEv
   9              	_ZN4_sem7deblockEv:
  10              	.LFB56:
  11              		.file 1 "src/_sem.cpp"
   1:src/_sem.cpp  **** #include "../h/_sem.hpp"
   2:src/_sem.cpp  **** 
   3:src/_sem.cpp  **** void _sem::signal() {
   4:src/_sem.cpp  ****     if(value++ < 0){
   5:src/_sem.cpp  ****         deblock();
   6:src/_sem.cpp  ****     }
   7:src/_sem.cpp  **** }
   8:src/_sem.cpp  **** 
   9:src/_sem.cpp  **** void _sem::wait() {
  10:src/_sem.cpp  ****     if(--value < 0){
  11:src/_sem.cpp  ****         block();
  12:src/_sem.cpp  ****     }
  13:src/_sem.cpp  **** }
  14:src/_sem.cpp  **** 
  15:src/_sem.cpp  **** void _sem::deblock() {
  12              		.loc 1 15 22
  13              		.cfi_startproc
  14              	.LVL0:
  15 0000 130101FE 		addi	sp,sp,-32
  16              		.cfi_def_cfa_offset 32
  17 0004 233C1100 		sd	ra,24(sp)
  18 0008 23388100 		sd	s0,16(sp)
  19 000c 23349100 		sd	s1,8(sp)
  20              		.cfi_offset 1, -8
  21              		.cfi_offset 8, -16
  22              		.cfi_offset 9, -24
  23 0010 13040102 		addi	s0,sp,32
  24              		.cfi_def_cfa 8, 0
  25 0014 93070500 		mv	a5,a0
  16:src/_sem.cpp  ****     _thread* unblocked = blocked.popHead();
  26              		.loc 1 16 5
  27              	.LVL1:
  28              	.LBB77:
  29              	.LBB78:
  30              		.file 2 "src/../h/ThreadList.hpp"
   1:src/../h/ThreadList.hpp **** //
   2:src/../h/ThreadList.hpp **** // Created by os on 6/26/24.
   3:src/../h/ThreadList.hpp **** //
   4:src/../h/ThreadList.hpp **** 
   5:src/../h/ThreadList.hpp **** #ifndef PROJECT_BASE_V1_1_THREADLIST_HPP
   6:src/../h/ThreadList.hpp **** #define PROJECT_BASE_V1_1_THREADLIST_HPP
   7:src/../h/ThreadList.hpp **** //#include "_thread.hpp"
   8:src/../h/ThreadList.hpp **** #include "MemAlloc.hpp"
   9:src/../h/ThreadList.hpp **** class _thread;
  10:src/../h/ThreadList.hpp **** class ThreadList{
  11:src/../h/ThreadList.hpp ****     struct Elem{
  12:src/../h/ThreadList.hpp ****         _thread* elem;
GAS LISTING /tmp/ccQOLE7E.s 			page 2


  13:src/../h/ThreadList.hpp ****         Elem* next;
  14:src/../h/ThreadList.hpp ****         Elem(_thread* elem) : elem(elem), next(nullptr){}
  15:src/../h/ThreadList.hpp ****         static void* operator new(size_t size){
  16:src/../h/ThreadList.hpp ****             return MemoryAllocator::mem_alloc(size);
  17:src/../h/ThreadList.hpp ****         }
  18:src/../h/ThreadList.hpp **** 
  19:src/../h/ThreadList.hpp ****         static void* operator new[](size_t size){
  20:src/../h/ThreadList.hpp ****             return MemoryAllocator::mem_alloc(size);
  21:src/../h/ThreadList.hpp ****         }
  22:src/../h/ThreadList.hpp **** 
  23:src/../h/ThreadList.hpp ****         static void operator delete (void* prt){
  24:src/../h/ThreadList.hpp ****             MemoryAllocator::mem_free(prt);
  25:src/../h/ThreadList.hpp ****         }
  26:src/../h/ThreadList.hpp **** 
  27:src/../h/ThreadList.hpp ****         static void operator delete[](void* ptr){
  28:src/../h/ThreadList.hpp ****             MemoryAllocator::mem_free(ptr);
  29:src/../h/ThreadList.hpp ****         }
  30:src/../h/ThreadList.hpp ****         //Write new and delete after mem_alloc()
  31:src/../h/ThreadList.hpp ****     };
  32:src/../h/ThreadList.hpp ****     Elem *head = nullptr, *tail = nullptr;
  33:src/../h/ThreadList.hpp **** public:
  34:src/../h/ThreadList.hpp **** 
  35:src/../h/ThreadList.hpp ****     void addTail(_thread* el){
  36:src/../h/ThreadList.hpp ****         Elem* elem = new Elem(el);
  37:src/../h/ThreadList.hpp ****         if(tail != nullptr){
  38:src/../h/ThreadList.hpp ****             tail->next = elem;
  39:src/../h/ThreadList.hpp ****             tail = elem;
  40:src/../h/ThreadList.hpp ****         } else {
  41:src/../h/ThreadList.hpp ****             head = elem;
  42:src/../h/ThreadList.hpp ****             tail = elem;
  43:src/../h/ThreadList.hpp ****         }
  44:src/../h/ThreadList.hpp ****     }
  45:src/../h/ThreadList.hpp **** 
  46:src/../h/ThreadList.hpp ****     _thread* popHead(){
  47:src/../h/ThreadList.hpp ****         if(!head) return 0;
  31              		.loc 2 47 9
  32              		.loc 2 47 13 is_stmt 0
  33 0018 03358500 		ld	a0,8(a0)
  34              	.LVL2:
  35              		.loc 2 47 9
  36 001c 63060504 		beqz	a0,.L4
  48:src/../h/ThreadList.hpp ****         Elem* curr = head;
  37              		.loc 2 48 9 is_stmt 1
  38              	.LVL3:
  49:src/../h/ThreadList.hpp **** 
  50:src/../h/ThreadList.hpp ****         head = head->next;
  39              		.loc 2 50 9
  40              		.loc 2 50 22 is_stmt 0
  41 0020 03378500 		ld	a4,8(a0)
  42              		.loc 2 50 14
  43 0024 23B4E700 		sd	a4,8(a5)
  51:src/../h/ThreadList.hpp ****         if(head == nullptr){tail = nullptr;}
  44              		.loc 2 51 9 is_stmt 1
  45 0028 630C0702 		beqz	a4,.L6
  46              	.L3:
  52:src/../h/ThreadList.hpp ****         _thread* ret = curr->elem;
  47              		.loc 2 52 9
GAS LISTING /tmp/ccQOLE7E.s 			page 3


  48              		.loc 2 52 18 is_stmt 0
  49 002c 83340500 		ld	s1,0(a0)
  50              	.LVL4:
  53:src/../h/ThreadList.hpp ****         delete curr;
  51              		.loc 2 53 9 is_stmt 1
  52              	.LBB79:
  53              	.LBB80:
  24:src/../h/ThreadList.hpp ****         }
  54              		.loc 2 24 13
  24:src/../h/ThreadList.hpp ****         }
  55              		.loc 2 24 38 is_stmt 0
  56 0030 97000000 		call	_ZN15MemoryAllocator8mem_freeEPv@plt
  56      E7800000 
  57              	.LVL5:
  58              	.LBE80:
  59              	.LBE79:
  54:src/../h/ThreadList.hpp ****         return ret;
  60              		.loc 2 54 9 is_stmt 1
  61              	.L2:
  62              	.LBE78:
  63              	.LBE77:
  17:src/_sem.cpp  ****     unblocked->setBlocked(false);
  64              		.loc 1 17 5
  65              	.LBB82:
  66              	.LBB83:
  67              		.file 3 "src/../h/_thread.hpp"
   1:src/../h/_thread.hpp **** //
   2:src/../h/_thread.hpp **** // Created by os on 5/20/24.
   3:src/../h/_thread.hpp **** //
   4:src/../h/_thread.hpp **** 
   5:src/../h/_thread.hpp **** #ifndef PROJECT_BASE_V1_1__THREAD_HPP
   6:src/../h/_thread.hpp **** #define PROJECT_BASE_V1_1__THREAD_HPP
   7:src/../h/_thread.hpp **** #include "RISCV.hpp"
   8:src/../h/_thread.hpp **** #include "../lib/hw.h"
   9:src/../h/_thread.hpp **** #include "MemAlloc.hpp"
  10:src/../h/_thread.hpp **** #include "Scheduler.hpp"
  11:src/../h/_thread.hpp **** 
  12:src/../h/_thread.hpp **** int main(int, char**);
  13:src/../h/_thread.hpp **** 
  14:src/../h/_thread.hpp **** void userMain(void*);
  15:src/../h/_thread.hpp **** 
  16:src/../h/_thread.hpp **** class _thread{
  17:src/../h/_thread.hpp **** public:
  18:src/../h/_thread.hpp ****     using Func = void(*)(void*);
  19:src/../h/_thread.hpp ****     friend class RISCV;
  20:src/../h/_thread.hpp ****     struct Context{
  21:src/../h/_thread.hpp ****         uint64 ra;
  22:src/../h/_thread.hpp ****         uint64 sp;
  23:src/../h/_thread.hpp ****     };
  24:src/../h/_thread.hpp ****     Func body;
  25:src/../h/_thread.hpp ****     Context context;
  26:src/../h/_thread.hpp ****     void* args;
  27:src/../h/_thread.hpp ****     bool blocked;
  28:src/../h/_thread.hpp ****     bool finished;
  29:src/../h/_thread.hpp ****     bool timedWait;
  30:src/../h/_thread.hpp ****     bool isAdmin;
  31:src/../h/_thread.hpp ****     bool sleepWait = false;
GAS LISTING /tmp/ccQOLE7E.s 			page 4


  32:src/../h/_thread.hpp ****     uint64 timeSlice;
  33:src/../h/_thread.hpp ****     uint64* stack;
  34:src/../h/_thread.hpp ****     _sem* mySem = nullptr;
  35:src/../h/_thread.hpp **** 
  36:src/../h/_thread.hpp **** 
  37:src/../h/_thread.hpp **** public:
  38:src/../h/_thread.hpp **** 
  39:src/../h/_thread.hpp ****     static void outputThread(void *);
  40:src/../h/_thread.hpp **** 
  41:src/../h/_thread.hpp ****     static void wrapper();
  42:src/../h/_thread.hpp **** 
  43:src/../h/_thread.hpp ****     static _thread* running;
  44:src/../h/_thread.hpp ****     static uint64 runningTimeSlice;
  45:src/../h/_thread.hpp **** 
  46:src/../h/_thread.hpp **** 
  47:src/../h/_thread.hpp ****     _thread(Func body, void* args, uint64 mra);
  48:src/../h/_thread.hpp ****     bool isBlocked(){return blocked;}
  49:src/../h/_thread.hpp ****     bool isTimedWait(){return timedWait;}
  50:src/../h/_thread.hpp ****     bool isFinished(){return finished;}
  51:src/../h/_thread.hpp ****     bool isSleeping(){return sleepWait;}
  52:src/../h/_thread.hpp **** 
  53:src/../h/_thread.hpp **** 
  54:src/../h/_thread.hpp ****     static _thread* createThread(Func func, void* args, uint64 mra);
  55:src/../h/_thread.hpp **** 
  56:src/../h/_thread.hpp ****     static void switchContext(Context* old, Context* newC);
  57:src/../h/_thread.hpp **** 
  58:src/../h/_thread.hpp ****     static void dispatch();
  59:src/../h/_thread.hpp **** 
  60:src/../h/_thread.hpp **** 
  61:src/../h/_thread.hpp ****     void* operator new(size_t size){
  62:src/../h/_thread.hpp ****         return MemoryAllocator::mem_alloc(size);
  63:src/../h/_thread.hpp ****     }
  64:src/../h/_thread.hpp **** 
  65:src/../h/_thread.hpp **** 
  66:src/../h/_thread.hpp ****     void operator delete (void* ptr){
  67:src/../h/_thread.hpp ****         MemoryAllocator::mem_free(ptr);
  68:src/../h/_thread.hpp ****     }
  69:src/../h/_thread.hpp **** 
  70:src/../h/_thread.hpp **** 
  71:src/../h/_thread.hpp ****     void setBlocked(bool blck){blocked = blck;}
  68              		.loc 3 71 32
  69              		.loc 3 71 40 is_stmt 0
  70 0038 23800402 		sb	zero,32(s1)
  71              	.LVL6:
  72              	.LBE83:
  73              	.LBE82:
  18:src/_sem.cpp  ****     unblocked->mySem = nullptr;
  74              		.loc 1 18 5 is_stmt 1
  75              		.loc 1 18 22 is_stmt 0
  76 003c 23BC0402 		sd	zero,56(s1)
  19:src/_sem.cpp  ****     Scheduler::put(unblocked);
  77              		.loc 1 19 5 is_stmt 1
  78              		.loc 1 19 19 is_stmt 0
  79 0040 13850400 		mv	a0,s1
  80 0044 97000000 		call	_ZN9Scheduler3putEP7_thread@plt
  80      E7800000 
  81              	.LVL7:
GAS LISTING /tmp/ccQOLE7E.s 			page 5


  20:src/_sem.cpp  **** }
  82              		.loc 1 20 1
  83 004c 83308101 		ld	ra,24(sp)
  84              		.cfi_remember_state
  85              		.cfi_restore 1
  86 0050 03340101 		ld	s0,16(sp)
  87              		.cfi_restore 8
  88              		.cfi_def_cfa 2, 32
  89 0054 83348100 		ld	s1,8(sp)
  90              		.cfi_restore 9
  91              	.LVL8:
  92 0058 13010102 		addi	sp,sp,32
  93              		.cfi_def_cfa_offset 0
  94 005c 67800000 		jr	ra
  95              	.LVL9:
  96              	.L6:
  97              		.cfi_restore_state
  98              	.LBB84:
  99              	.LBB81:
  51:src/../h/ThreadList.hpp ****         _thread* ret = curr->elem;
 100              		.loc 2 51 29 is_stmt 1
  51:src/../h/ThreadList.hpp ****         _thread* ret = curr->elem;
 101              		.loc 2 51 34 is_stmt 0
 102 0060 23B80700 		sd	zero,16(a5)
 103 0064 6FF09FFC 		j	.L3
 104              	.LVL10:
 105              	.L4:
  47:src/../h/ThreadList.hpp ****         Elem* curr = head;
 106              		.loc 2 47 26
 107 0068 93040500 		mv	s1,a0
 108 006c 6FF0DFFC 		j	.L2
 109              	.LBE81:
 110              	.LBE84:
 111              		.cfi_endproc
 112              	.LFE56:
 114              		.align	2
 115              		.globl	_ZN4_sem6signalEv
 117              	_ZN4_sem6signalEv:
 118              	.LFB54:
   3:src/_sem.cpp  ****     if(value++ < 0){
 119              		.loc 1 3 21 is_stmt 1
 120              		.cfi_startproc
 121              	.LVL11:
   4:src/_sem.cpp  ****         deblock();
 122              		.loc 1 4 5
   4:src/_sem.cpp  ****         deblock();
 123              		.loc 1 4 8 is_stmt 0
 124 0070 83270500 		lw	a5,0(a0)
   4:src/_sem.cpp  ****         deblock();
 125              		.loc 1 4 13
 126 0074 1B871700 		addiw	a4,a5,1
 127 0078 2320E500 		sw	a4,0(a0)
   4:src/_sem.cpp  ****         deblock();
 128              		.loc 1 4 5
 129 007c 63C40700 		bltz	a5,.L13
 130 0080 67800000 		ret
 131              	.L13:
GAS LISTING /tmp/ccQOLE7E.s 			page 6


   3:src/_sem.cpp  ****     if(value++ < 0){
 132              		.loc 1 3 21
 133 0084 130101FF 		addi	sp,sp,-16
 134              		.cfi_def_cfa_offset 16
 135 0088 23341100 		sd	ra,8(sp)
 136 008c 23308100 		sd	s0,0(sp)
 137              		.cfi_offset 1, -8
 138              		.cfi_offset 8, -16
 139 0090 13040101 		addi	s0,sp,16
 140              		.cfi_def_cfa 8, 0
   5:src/_sem.cpp  ****     }
 141              		.loc 1 5 9 is_stmt 1
   5:src/_sem.cpp  ****     }
 142              		.loc 1 5 16 is_stmt 0
 143 0094 97000000 		call	_ZN4_sem7deblockEv
 143      E7800000 
 144              	.LVL12:
   7:src/_sem.cpp  **** 
 145              		.loc 1 7 1
 146 009c 83308100 		ld	ra,8(sp)
 147              		.cfi_restore 1
 148 00a0 03340100 		ld	s0,0(sp)
 149              		.cfi_restore 8
 150              		.cfi_def_cfa 2, 16
 151 00a4 13010101 		addi	sp,sp,16
 152              		.cfi_def_cfa_offset 0
 153 00a8 67800000 		jr	ra
 154              		.cfi_endproc
 155              	.LFE54:
 157              		.align	2
 158              		.globl	_ZN4_sem5blockEv
 160              	_ZN4_sem5blockEv:
 161              	.LFB57:
  21:src/_sem.cpp  **** 
  22:src/_sem.cpp  **** void _sem::block() {
 162              		.loc 1 22 20 is_stmt 1
 163              		.cfi_startproc
 164              	.LVL13:
 165 00ac 130101FE 		addi	sp,sp,-32
 166              		.cfi_def_cfa_offset 32
 167 00b0 233C1100 		sd	ra,24(sp)
 168 00b4 23388100 		sd	s0,16(sp)
 169 00b8 23349100 		sd	s1,8(sp)
 170 00bc 23302101 		sd	s2,0(sp)
 171              		.cfi_offset 1, -8
 172              		.cfi_offset 8, -16
 173              		.cfi_offset 9, -24
 174              		.cfi_offset 18, -32
 175 00c0 13040102 		addi	s0,sp,32
 176              		.cfi_def_cfa 8, 0
 177 00c4 93040500 		mv	s1,a0
  23:src/_sem.cpp  ****     blocked.addTail(_thread::running);
 178              		.loc 1 23 5
 179              		.loc 1 23 20 is_stmt 0
 180 00c8 97070000 		la	a5,_ZN7_thread7runningE
 180      83B70700 
 181 00d0 03B90700 		ld	s2,0(a5)
GAS LISTING /tmp/ccQOLE7E.s 			page 7


 182              	.LVL14:
 183              	.LBB85:
 184              	.LBB86:
  36:src/../h/ThreadList.hpp ****         if(tail != nullptr){
 185              		.loc 2 36 9 is_stmt 1
 186              	.LBB87:
 187              	.LBB88:
  16:src/../h/ThreadList.hpp ****         }
 188              		.loc 2 16 13
  16:src/../h/ThreadList.hpp ****         }
 189              		.loc 2 16 46 is_stmt 0
 190 00d4 13050001 		li	a0,16
 191              	.LVL15:
 192 00d8 97000000 		call	_ZN15MemoryAllocator9mem_allocEm@plt
 192      E7800000 
 193              	.LVL16:
 194              	.LBE88:
 195              	.LBE87:
 196              	.LBB89:
 197              	.LBB90:
  14:src/../h/ThreadList.hpp ****         static void* operator new(size_t size){
 198              		.loc 2 14 55
 199 00e0 23302501 		sd	s2,0(a0)
 200 00e4 23340500 		sd	zero,8(a0)
 201              	.LVL17:
 202              	.LBE90:
 203              	.LBE89:
  37:src/../h/ThreadList.hpp ****             tail->next = elem;
 204              		.loc 2 37 9 is_stmt 1
  37:src/../h/ThreadList.hpp ****             tail->next = elem;
 205              		.loc 2 37 12 is_stmt 0
 206 00e8 83B70401 		ld	a5,16(s1)
  37:src/../h/ThreadList.hpp ****             tail->next = elem;
 207              		.loc 2 37 9
 208 00ec 63820704 		beqz	a5,.L15
  38:src/../h/ThreadList.hpp ****             tail = elem;
 209              		.loc 2 38 13 is_stmt 1
  38:src/../h/ThreadList.hpp ****             tail = elem;
 210              		.loc 2 38 24 is_stmt 0
 211 00f0 23B4A700 		sd	a0,8(a5)
  39:src/../h/ThreadList.hpp ****         } else {
 212              		.loc 2 39 13 is_stmt 1
  39:src/../h/ThreadList.hpp ****         } else {
 213              		.loc 2 39 18 is_stmt 0
 214 00f4 23B8A400 		sd	a0,16(s1)
 215              	.L16:
 216              	.LVL18:
 217              	.LBE86:
 218              	.LBE85:
  24:src/_sem.cpp  ****     _thread::running->setBlocked(true);
 219              		.loc 1 24 5 is_stmt 1
 220              		.loc 1 24 33 is_stmt 0
 221 00f8 97070000 		la	a5,_ZN7_thread7runningE
 221      83B70700 
 222 0100 83B70700 		ld	a5,0(a5)
 223              	.LVL19:
 224              	.LBB92:
GAS LISTING /tmp/ccQOLE7E.s 			page 8


 225              	.LBB93:
 226              		.loc 3 71 32 is_stmt 1
 227              		.loc 3 71 40 is_stmt 0
 228 0104 13071000 		li	a4,1
 229 0108 2380E702 		sb	a4,32(a5)
 230              	.LVL20:
 231              	.LBE93:
 232              	.LBE92:
  25:src/_sem.cpp  ****     _thread::running->mySem = this;
 233              		.loc 1 25 5 is_stmt 1
 234              		.loc 1 25 29 is_stmt 0
 235 010c 23BC9702 		sd	s1,56(a5)
  26:src/_sem.cpp  ****     _thread::dispatch();
 236              		.loc 1 26 5 is_stmt 1
 237              		.loc 1 26 22 is_stmt 0
 238 0110 97000000 		call	_ZN7_thread8dispatchEv@plt
 238      E7800000 
 239              	.LVL21:
  27:src/_sem.cpp  **** }
 240              		.loc 1 27 1
 241 0118 83308101 		ld	ra,24(sp)
 242              		.cfi_remember_state
 243              		.cfi_restore 1
 244 011c 03340101 		ld	s0,16(sp)
 245              		.cfi_restore 8
 246              		.cfi_def_cfa 2, 32
 247 0120 83348100 		ld	s1,8(sp)
 248              		.cfi_restore 9
 249              	.LVL22:
 250 0124 03390100 		ld	s2,0(sp)
 251              		.cfi_restore 18
 252 0128 13010102 		addi	sp,sp,32
 253              		.cfi_def_cfa_offset 0
 254 012c 67800000 		jr	ra
 255              	.LVL23:
 256              	.L15:
 257              		.cfi_restore_state
 258              	.LBB94:
 259              	.LBB91:
  41:src/../h/ThreadList.hpp ****             tail = elem;
 260              		.loc 2 41 13 is_stmt 1
  41:src/../h/ThreadList.hpp ****             tail = elem;
 261              		.loc 2 41 18 is_stmt 0
 262 0130 23B4A400 		sd	a0,8(s1)
  42:src/../h/ThreadList.hpp ****         }
 263              		.loc 2 42 13 is_stmt 1
  42:src/../h/ThreadList.hpp ****         }
 264              		.loc 2 42 18 is_stmt 0
 265 0134 23B8A400 		sd	a0,16(s1)
 266 0138 6FF01FFC 		j	.L16
 267              	.LBE91:
 268              	.LBE94:
 269              		.cfi_endproc
 270              	.LFE57:
 272              		.align	2
 273              		.globl	_ZN4_sem4waitEv
 275              	_ZN4_sem4waitEv:
GAS LISTING /tmp/ccQOLE7E.s 			page 9


 276              	.LFB55:
   9:src/_sem.cpp  ****     if(--value < 0){
 277              		.loc 1 9 19 is_stmt 1
 278              		.cfi_startproc
 279              	.LVL24:
  10:src/_sem.cpp  ****         block();
 280              		.loc 1 10 5
  10:src/_sem.cpp  ****         block();
 281              		.loc 1 10 10 is_stmt 0
 282 013c 83270500 		lw	a5,0(a0)
  10:src/_sem.cpp  ****         block();
 283              		.loc 1 10 8
 284 0140 9B87F7FF 		addiw	a5,a5,-1
  10:src/_sem.cpp  ****         block();
 285              		.loc 1 10 16
 286 0144 2320F500 		sw	a5,0(a0)
  10:src/_sem.cpp  ****         block();
 287              		.loc 1 10 5
 288 0148 13970702 		slli	a4,a5,32
 289 014c 63440700 		bltz	a4,.L24
 290 0150 67800000 		ret
 291              	.L24:
   9:src/_sem.cpp  ****     if(--value < 0){
 292              		.loc 1 9 19
 293 0154 130101FF 		addi	sp,sp,-16
 294              		.cfi_def_cfa_offset 16
 295 0158 23341100 		sd	ra,8(sp)
 296 015c 23308100 		sd	s0,0(sp)
 297              		.cfi_offset 1, -8
 298              		.cfi_offset 8, -16
 299 0160 13040101 		addi	s0,sp,16
 300              		.cfi_def_cfa 8, 0
  11:src/_sem.cpp  ****     }
 301              		.loc 1 11 9 is_stmt 1
  11:src/_sem.cpp  ****     }
 302              		.loc 1 11 14 is_stmt 0
 303 0164 97000000 		call	_ZN4_sem5blockEv
 303      E7800000 
 304              	.LVL25:
  13:src/_sem.cpp  **** 
 305              		.loc 1 13 1
 306 016c 83308100 		ld	ra,8(sp)
 307              		.cfi_restore 1
 308 0170 03340100 		ld	s0,0(sp)
 309              		.cfi_restore 8
 310              		.cfi_def_cfa 2, 16
 311 0174 13010101 		addi	sp,sp,16
 312              		.cfi_def_cfa_offset 0
 313 0178 67800000 		jr	ra
 314              		.cfi_endproc
 315              	.LFE55:
 317              		.align	2
 318              		.globl	_ZN4_semnwEm
 320              	_ZN4_semnwEm:
 321              	.LFB58:
  28:src/_sem.cpp  **** 
  29:src/_sem.cpp  **** void *_sem::operator new(size_t size) {
GAS LISTING /tmp/ccQOLE7E.s 			page 10


 322              		.loc 1 29 39 is_stmt 1
 323              		.cfi_startproc
 324              	.LVL26:
 325 017c 130101FF 		addi	sp,sp,-16
 326              		.cfi_def_cfa_offset 16
 327 0180 23341100 		sd	ra,8(sp)
 328 0184 23308100 		sd	s0,0(sp)
 329              		.cfi_offset 1, -8
 330              		.cfi_offset 8, -16
 331 0188 13040101 		addi	s0,sp,16
 332              		.cfi_def_cfa 8, 0
  30:src/_sem.cpp  ****     return MemoryAllocator::mem_alloc(size);
 333              		.loc 1 30 5
 334              		.loc 1 30 38 is_stmt 0
 335 018c 97000000 		call	_ZN15MemoryAllocator9mem_allocEm@plt
 335      E7800000 
 336              	.LVL27:
  31:src/_sem.cpp  **** }
 337              		.loc 1 31 1
 338 0194 83308100 		ld	ra,8(sp)
 339              		.cfi_restore 1
 340 0198 03340100 		ld	s0,0(sp)
 341              		.cfi_restore 8
 342              		.cfi_def_cfa 2, 16
 343 019c 13010101 		addi	sp,sp,16
 344              		.cfi_def_cfa_offset 0
 345 01a0 67800000 		jr	ra
 346              		.cfi_endproc
 347              	.LFE58:
 349              		.align	2
 350              		.globl	_ZN4_semdlEPv
 352              	_ZN4_semdlEPv:
 353              	.LFB59:
  32:src/_sem.cpp  **** 
  33:src/_sem.cpp  **** void _sem::operator delete(void *ptr) {
 354              		.loc 1 33 39 is_stmt 1
 355              		.cfi_startproc
 356              	.LVL28:
 357 01a4 130101FF 		addi	sp,sp,-16
 358              		.cfi_def_cfa_offset 16
 359 01a8 23341100 		sd	ra,8(sp)
 360 01ac 23308100 		sd	s0,0(sp)
 361              		.cfi_offset 1, -8
 362              		.cfi_offset 8, -16
 363 01b0 13040101 		addi	s0,sp,16
 364              		.cfi_def_cfa 8, 0
  34:src/_sem.cpp  ****     MemoryAllocator::mem_free(ptr);
 365              		.loc 1 34 5
 366              		.loc 1 34 30 is_stmt 0
 367 01b4 97000000 		call	_ZN15MemoryAllocator8mem_freeEPv@plt
 367      E7800000 
 368              	.LVL29:
  35:src/_sem.cpp  **** }
 369              		.loc 1 35 1
 370 01bc 83308100 		ld	ra,8(sp)
 371              		.cfi_restore 1
 372 01c0 03340100 		ld	s0,0(sp)
GAS LISTING /tmp/ccQOLE7E.s 			page 11


 373              		.cfi_restore 8
 374              		.cfi_def_cfa 2, 16
 375 01c4 13010101 		addi	sp,sp,16
 376              		.cfi_def_cfa_offset 0
 377 01c8 67800000 		jr	ra
 378              		.cfi_endproc
 379              	.LFE59:
 381              		.align	2
 382              		.globl	_ZN4_sem9close_semEPS_
 384              	_ZN4_sem9close_semEPS_:
 385              	.LFB60:
  36:src/_sem.cpp  **** 
  37:src/_sem.cpp  **** void _sem::close_sem(sem_t handle) {
 386              		.loc 1 37 36 is_stmt 1
 387              		.cfi_startproc
 388              	.LVL30:
 389 01cc 130101FE 		addi	sp,sp,-32
 390              		.cfi_def_cfa_offset 32
 391 01d0 233C1100 		sd	ra,24(sp)
 392 01d4 23388100 		sd	s0,16(sp)
 393 01d8 23349100 		sd	s1,8(sp)
 394              		.cfi_offset 1, -8
 395              		.cfi_offset 8, -16
 396              		.cfi_offset 9, -24
 397 01dc 13040102 		addi	s0,sp,32
 398              		.cfi_def_cfa 8, 0
 399 01e0 93040500 		mv	s1,a0
 400              	.LVL31:
 401              	.L31:
  38:src/_sem.cpp  ****     while (handle->blocked.peekHead() != nullptr){
 402              		.loc 1 38 5
 403              		.loc 1 38 39
 404              	.LBB95:
 405              	.LBB96:
  55:src/../h/ThreadList.hpp ****     }
  56:src/../h/ThreadList.hpp **** 
  57:src/../h/ThreadList.hpp ****     _thread* peekHead(){
  58:src/../h/ThreadList.hpp ****         if(head != nullptr){ return head->elem;}
 406              		.loc 2 58 9
 407              		.loc 2 58 12 is_stmt 0
 408 01e4 83B78400 		ld	a5,8(s1)
 409              		.loc 2 58 9
 410 01e8 638E0700 		beqz	a5,.L29
 411              		.loc 2 58 30 is_stmt 1
 412              		.loc 2 58 43 is_stmt 0
 413 01ec 83B70700 		ld	a5,0(a5)
 414              	.LVL32:
 415              	.LBE96:
 416              	.LBE95:
 417              		.loc 1 38 39
 418 01f0 638A0700 		beqz	a5,.L29
  39:src/_sem.cpp  ****         handle->deblock();
 419              		.loc 1 39 9 is_stmt 1
 420              		.loc 1 39 24 is_stmt 0
 421 01f4 13850400 		mv	a0,s1
 422 01f8 97000000 		call	_ZN4_sem7deblockEv
 422      E7800000 
GAS LISTING /tmp/ccQOLE7E.s 			page 12


 423              	.LVL33:
  38:src/_sem.cpp  ****     while (handle->blocked.peekHead() != nullptr){
 424              		.loc 1 38 5
 425 0200 6FF05FFE 		j	.L31
 426              	.L29:
  40:src/_sem.cpp  ****     }
  41:src/_sem.cpp  **** }
 427              		.loc 1 41 1
 428 0204 83308101 		ld	ra,24(sp)
 429              		.cfi_restore 1
 430 0208 03340101 		ld	s0,16(sp)
 431              		.cfi_restore 8
 432              		.cfi_def_cfa 2, 32
 433 020c 83348100 		ld	s1,8(sp)
 434              		.cfi_restore 9
 435              	.LVL34:
 436 0210 13010102 		addi	sp,sp,32
 437              		.cfi_def_cfa_offset 0
 438 0214 67800000 		jr	ra
 439              		.cfi_endproc
 440              	.LFE60:
 442              		.align	2
 443              		.globl	_ZN4_sem8try_waitEv
 445              	_ZN4_sem8try_waitEv:
 446              	.LFB61:
  42:src/_sem.cpp  **** 
  43:src/_sem.cpp  **** int _sem::try_wait() {
 447              		.loc 1 43 22 is_stmt 1
 448              		.cfi_startproc
 449              	.LVL35:
 450 0218 130101FF 		addi	sp,sp,-16
 451              		.cfi_def_cfa_offset 16
 452 021c 23348100 		sd	s0,8(sp)
 453              		.cfi_offset 8, -8
 454 0220 13040101 		addi	s0,sp,16
 455              		.cfi_def_cfa 8, 0
  44:src/_sem.cpp  ****     if(value - 1 < 0){
 456              		.loc 1 44 5
 457              		.loc 1 44 8 is_stmt 0
 458 0224 83270500 		lw	a5,0(a0)
 459              		.loc 1 44 5
 460 0228 635EF000 		blez	a5,.L35
  45:src/_sem.cpp  ****         return -1;
  46:src/_sem.cpp  ****     } else {
  47:src/_sem.cpp  ****         value--;
 461              		.loc 1 47 9 is_stmt 1
 462              		.loc 1 47 14 is_stmt 0
 463 022c 9B87F7FF 		addiw	a5,a5,-1
 464 0230 2320F500 		sw	a5,0(a0)
  48:src/_sem.cpp  ****         return 0;
 465              		.loc 1 48 9 is_stmt 1
 466              		.loc 1 48 16 is_stmt 0
 467 0234 13050000 		li	a0,0
 468              	.LVL36:
 469              	.L34:
  49:src/_sem.cpp  ****     }
  50:src/_sem.cpp  **** }
GAS LISTING /tmp/ccQOLE7E.s 			page 13


 470              		.loc 1 50 1
 471 0238 03348100 		ld	s0,8(sp)
 472              		.cfi_remember_state
 473              		.cfi_restore 8
 474              		.cfi_def_cfa 2, 16
 475 023c 13010101 		addi	sp,sp,16
 476              		.cfi_def_cfa_offset 0
 477 0240 67800000 		jr	ra
 478              	.LVL37:
 479              	.L35:
 480              		.cfi_restore_state
  45:src/_sem.cpp  ****     } else {
 481              		.loc 1 45 17
 482 0244 1305F0FF 		li	a0,-1
 483              	.LVL38:
 484 0248 6FF01FFF 		j	.L34
 485              		.cfi_endproc
 486              	.LFE61:
 488              		.align	2
 489              		.globl	_ZN4_sem4initEi
 491              	_ZN4_sem4initEi:
 492              	.LFB62:
  51:src/_sem.cpp  **** 
  52:src/_sem.cpp  **** _sem *_sem::init(int val) {
 493              		.loc 1 52 27 is_stmt 1
 494              		.cfi_startproc
 495              	.LVL39:
 496 024c 130101FE 		addi	sp,sp,-32
 497              		.cfi_def_cfa_offset 32
 498 0250 233C1100 		sd	ra,24(sp)
 499 0254 23388100 		sd	s0,16(sp)
 500 0258 23349100 		sd	s1,8(sp)
 501              		.cfi_offset 1, -8
 502              		.cfi_offset 8, -16
 503              		.cfi_offset 9, -24
 504 025c 13040102 		addi	s0,sp,32
 505              		.cfi_def_cfa 8, 0
 506 0260 93040500 		mv	s1,a0
  53:src/_sem.cpp  ****     _sem* ret = new _sem(val);
 507              		.loc 1 53 5
 508              		.loc 1 53 29 is_stmt 0
 509 0264 13058001 		li	a0,24
 510              	.LVL40:
 511 0268 97000000 		call	_ZN4_semnwEm
 511      E7800000 
 512              	.LVL41:
 513              	.LBB97:
 514              	.LBB98:
 515              		.file 4 "src/../h/_sem.hpp"
   1:src/../h/_sem.hpp **** //
   2:src/../h/_sem.hpp **** // Created by os on 5/29/24.
   3:src/../h/_sem.hpp **** //
   4:src/../h/_sem.hpp **** 
   5:src/../h/_sem.hpp **** #ifndef PROJECT_BASE_V1_1__SEM_HPP
   6:src/../h/_sem.hpp **** #define PROJECT_BASE_V1_1__SEM_HPP
   7:src/../h/_sem.hpp **** class ThreadList;
   8:src/../h/_sem.hpp **** #include "ThreadList.hpp"
GAS LISTING /tmp/ccQOLE7E.s 			page 14


   9:src/../h/_sem.hpp **** #include "_thread.hpp"
  10:src/../h/_sem.hpp **** 
  11:src/../h/_sem.hpp **** 
  12:src/../h/_sem.hpp **** class _sem{
  13:src/../h/_sem.hpp **** private:
  14:src/../h/_sem.hpp ****     int value;
  15:src/../h/_sem.hpp ****     ThreadList blocked;
  16:src/../h/_sem.hpp ****     friend class RISCV;
  17:src/../h/_sem.hpp **** 
  18:src/../h/_sem.hpp ****     explicit _sem(int value) : value(value){}
 516              		.loc 4 18 43
 517 0270 23209500 		sw	s1,0(a0)
 518              	.LVL42:
 519              	.LBB99:
 520              	.LBB100:
  10:src/../h/ThreadList.hpp ****     struct Elem{
 521              		.loc 2 10 7
 522 0274 23340500 		sd	zero,8(a0)
 523 0278 23380500 		sd	zero,16(a0)
 524              	.LVL43:
 525              	.LBE100:
 526              	.LBE99:
 527              	.LBE98:
 528              	.LBE97:
  54:src/_sem.cpp  ****     return ret;
 529              		.loc 1 54 5 is_stmt 1
  55:src/_sem.cpp  **** }
 530              		.loc 1 55 1 is_stmt 0
 531 027c 83308101 		ld	ra,24(sp)
 532              		.cfi_restore 1
 533 0280 03340101 		ld	s0,16(sp)
 534              		.cfi_restore 8
 535              		.cfi_def_cfa 2, 32
 536 0284 83348100 		ld	s1,8(sp)
 537              		.cfi_restore 9
 538 0288 13010102 		addi	sp,sp,32
 539              		.cfi_def_cfa_offset 0
 540 028c 67800000 		jr	ra
 541              		.cfi_endproc
 542              	.LFE62:
 544              		.align	2
 545              		.globl	_ZN4_sem9timedWaitEm
 547              	_ZN4_sem9timedWaitEm:
 548              	.LFB63:
  56:src/_sem.cpp  **** 
  57:src/_sem.cpp  **** void _sem::timedWait(time_t slice) {
 549              		.loc 1 57 36 is_stmt 1
 550              		.cfi_startproc
 551              	.LVL44:
  58:src/_sem.cpp  ****     if(--value < 0){
 552              		.loc 1 58 5
 553              		.loc 1 58 10 is_stmt 0
 554 0290 83270500 		lw	a5,0(a0)
 555              		.loc 1 58 8
 556 0294 9B87F7FF 		addiw	a5,a5,-1
 557              		.loc 1 58 16
 558 0298 2320F500 		sw	a5,0(a0)
GAS LISTING /tmp/ccQOLE7E.s 			page 15


 559              		.loc 1 58 5
 560 029c 13970702 		slli	a4,a5,32
 561 02a0 63440700 		bltz	a4,.L57
 562 02a4 67800000 		ret
 563              	.L57:
  57:src/_sem.cpp  ****     if(--value < 0){
 564              		.loc 1 57 36
 565 02a8 130101FC 		addi	sp,sp,-64
 566              		.cfi_def_cfa_offset 64
 567 02ac 233C1102 		sd	ra,56(sp)
 568 02b0 23388102 		sd	s0,48(sp)
 569 02b4 23349102 		sd	s1,40(sp)
 570 02b8 23302103 		sd	s2,32(sp)
 571 02bc 233C3101 		sd	s3,24(sp)
 572 02c0 23384101 		sd	s4,16(sp)
 573 02c4 23345101 		sd	s5,8(sp)
 574              		.cfi_offset 1, -8
 575              		.cfi_offset 8, -16
 576              		.cfi_offset 9, -24
 577              		.cfi_offset 18, -32
 578              		.cfi_offset 19, -40
 579              		.cfi_offset 20, -48
 580              		.cfi_offset 21, -56
 581 02c8 13040104 		addi	s0,sp,64
 582              		.cfi_def_cfa 8, 0
 583 02cc 93090500 		mv	s3,a0
 584 02d0 93840500 		mv	s1,a1
  59:src/_sem.cpp  ****         RISCV::semTimedWaitList.put(_thread::running, slice);
 585              		.loc 1 59 9 is_stmt 1
 586              		.loc 1 59 36 is_stmt 0
 587 02d4 97070000 		la	a5,_ZN7_thread7runningE
 587      83B70700 
 588 02dc 83BA0700 		ld	s5,0(a5)
 589              	.LVL45:
 590              		.file 5 "src/../h/SleepingList.hpp"
   1:src/../h/SleepingList.hpp **** 
   2:src/../h/SleepingList.hpp **** 
   3:src/../h/SleepingList.hpp **** #ifndef PROJECT_BASE_V1_1_SLEEPINGLIST_HPP
   4:src/../h/SleepingList.hpp **** #define PROJECT_BASE_V1_1_SLEEPINGLIST_HPP
   5:src/../h/SleepingList.hpp **** #include "Scheduler.hpp"
   6:src/../h/SleepingList.hpp **** #include "_thread.hpp"
   7:src/../h/SleepingList.hpp **** #include "MemAlloc.hpp"
   8:src/../h/SleepingList.hpp **** class SleepingList {
   9:src/../h/SleepingList.hpp ****     struct Elem{
  10:src/../h/SleepingList.hpp ****         _thread* thread;
  11:src/../h/SleepingList.hpp ****         time_t relativeTime;
  12:src/../h/SleepingList.hpp ****         Elem* next;
  13:src/../h/SleepingList.hpp ****         Elem(_thread* thread, time_t relativeTime, Elem* next) : thread(thread), relativeTime(relat
  14:src/../h/SleepingList.hpp **** 
  15:src/../h/SleepingList.hpp ****         static void* operator new(size_t size){
  16:src/../h/SleepingList.hpp ****             return MemoryAllocator::mem_alloc(size);
  17:src/../h/SleepingList.hpp ****         }
  18:src/../h/SleepingList.hpp **** 
  19:src/../h/SleepingList.hpp ****         static void* operator new[](size_t size){
  20:src/../h/SleepingList.hpp ****             return MemoryAllocator::mem_alloc(size);
  21:src/../h/SleepingList.hpp ****         }
  22:src/../h/SleepingList.hpp **** 
GAS LISTING /tmp/ccQOLE7E.s 			page 16


  23:src/../h/SleepingList.hpp ****         static void operator delete (void* prt){
  24:src/../h/SleepingList.hpp ****             MemoryAllocator::mem_free(prt);
  25:src/../h/SleepingList.hpp ****         }
  26:src/../h/SleepingList.hpp **** 
  27:src/../h/SleepingList.hpp ****         static void operator delete[](void* ptr){
  28:src/../h/SleepingList.hpp ****             MemoryAllocator::mem_free(ptr);
  29:src/../h/SleepingList.hpp ****         }
  30:src/../h/SleepingList.hpp ****     };
  31:src/../h/SleepingList.hpp **** 
  32:src/../h/SleepingList.hpp ****     Elem *head, *tail;
  33:src/../h/SleepingList.hpp **** 
  34:src/../h/SleepingList.hpp **** public:
  35:src/../h/SleepingList.hpp ****     SleepingList() : head(nullptr), tail(nullptr){   }
  36:src/../h/SleepingList.hpp **** 
  37:src/../h/SleepingList.hpp ****     SleepingList(const SleepingList&) = delete;
  38:src/../h/SleepingList.hpp **** 
  39:src/../h/SleepingList.hpp ****     SleepingList& operator=(const SleepingList&) = delete;
  40:src/../h/SleepingList.hpp **** 
  41:src/../h/SleepingList.hpp ****     void tickTime(){
  42:src/../h/SleepingList.hpp ****         if(head != nullptr){
  43:src/../h/SleepingList.hpp ****             head->relativeTime -= 1;
  44:src/../h/SleepingList.hpp ****         }
  45:src/../h/SleepingList.hpp ****     }
  46:src/../h/SleepingList.hpp **** 
  47:src/../h/SleepingList.hpp ****     time_t peekFirst(){
  48:src/../h/SleepingList.hpp ****         if(head != nullptr){
  49:src/../h/SleepingList.hpp ****             return head->relativeTime;
  50:src/../h/SleepingList.hpp ****         }
  51:src/../h/SleepingList.hpp ****         return -1;
  52:src/../h/SleepingList.hpp ****     }
  53:src/../h/SleepingList.hpp **** 
  54:src/../h/SleepingList.hpp ****     void wakeThreads();
  55:src/../h/SleepingList.hpp **** 
  56:src/../h/SleepingList.hpp ****     void put(_thread* newSleep, time_t slice){
  57:src/../h/SleepingList.hpp ****         if(!head){
 591              		.loc 5 57 9 is_stmt 1
 592              	.LBB141:
 593              	.LBB142:
 594              		.loc 5 57 13 is_stmt 0
 595 02e0 97070000 		la	a5,_ZN5RISCV16semTimedWaitListE
 595      83B70700 
 596 02e8 03B90700 		ld	s2,0(a5)
 597              		.loc 5 57 9
 598 02ec 63080902 		beqz	s2,.L58
 599              	.LVL46:
 600              	.LBB143:
  58:src/../h/SleepingList.hpp ****             head = new Elem(newSleep, slice, nullptr);
  59:src/../h/SleepingList.hpp ****             tail = head;
  60:src/../h/SleepingList.hpp ****         } else {
  61:src/../h/SleepingList.hpp ****             Elem* temp = head;
  62:src/../h/SleepingList.hpp ****             Elem* prev = nullptr;
 601              		.loc 5 62 19
 602 02f0 130A0000 		li	s4,0
 603              	.LVL47:
 604              	.L41:
  63:src/../h/SleepingList.hpp ****             while (temp != tail && slice >= temp->relativeTime){
 605              		.loc 5 63 13 is_stmt 1
GAS LISTING /tmp/ccQOLE7E.s 			page 17


 606              		.loc 5 63 33
 607              		.loc 5 63 28 is_stmt 0
 608 02f4 97070000 		la	a5,_ZN5RISCV16semTimedWaitListE
 608      83B70700 
 609 02fc 03B78700 		ld	a4,8(a5)
 610              		.loc 5 63 33
 611 0300 63042705 		beq	a4,s2,.L43
 612              		.loc 5 63 51
 613 0304 83378900 		ld	a5,8(s2)
 614              		.loc 5 63 33
 615 0308 63E0F404 		bgtu	a5,s1,.L43
  64:src/../h/SleepingList.hpp ****                 slice -= temp->relativeTime;
 616              		.loc 5 64 17 is_stmt 1
 617              		.loc 5 64 23 is_stmt 0
 618 030c B384F440 		sub	s1,s1,a5
 619              	.LVL48:
  65:src/../h/SleepingList.hpp ****                 prev = temp;
 620              		.loc 5 65 17 is_stmt 1
  66:src/../h/SleepingList.hpp ****                 temp = temp->next;
 621              		.loc 5 66 17
  65:src/../h/SleepingList.hpp ****                 prev = temp;
 622              		.loc 5 65 22 is_stmt 0
 623 0310 130A0900 		mv	s4,s2
 624              		.loc 5 66 22
 625 0314 03390901 		ld	s2,16(s2)
 626              	.LVL49:
  63:src/../h/SleepingList.hpp ****                 slice -= temp->relativeTime;
 627              		.loc 5 63 13
 628 0318 6FF0DFFD 		j	.L41
 629              	.LVL50:
 630              	.L58:
 631              	.LBE143:
  58:src/../h/SleepingList.hpp ****             tail = head;
 632              		.loc 5 58 13 is_stmt 1
 633              	.LBB163:
 634              	.LBB164:
  16:src/../h/SleepingList.hpp ****         }
 635              		.loc 5 16 13
  16:src/../h/SleepingList.hpp ****         }
 636              		.loc 5 16 46 is_stmt 0
 637 031c 13058001 		li	a0,24
 638              	.LVL51:
 639 0320 97000000 		call	_ZN15MemoryAllocator9mem_allocEm@plt
 639      E7800000 
 640              	.LVL52:
 641              	.LBE164:
 642              	.LBE163:
 643              	.LBB165:
 644              	.LBB166:
  13:src/../h/SleepingList.hpp **** 
 645              		.loc 5 13 119
 646 0328 23305501 		sd	s5,0(a0)
 647 032c 23349500 		sd	s1,8(a0)
 648 0330 23380500 		sd	zero,16(a0)
 649              	.LVL53:
 650              	.LBE166:
 651              	.LBE165:
GAS LISTING /tmp/ccQOLE7E.s 			page 18


  58:src/../h/SleepingList.hpp ****             tail = head;
 652              		.loc 5 58 18
 653 0334 97070000 		la	a5,_ZN5RISCV16semTimedWaitListE
 653      83B70700 
 654 033c 23B0A700 		sd	a0,0(a5)
  59:src/../h/SleepingList.hpp ****         } else {
 655              		.loc 5 59 13 is_stmt 1
  59:src/../h/SleepingList.hpp ****         } else {
 656              		.loc 5 59 18 is_stmt 0
 657 0340 23B4A700 		sd	a0,8(a5)
 658 0344 6F004003 		j	.L42
 659              	.LVL54:
 660              	.L43:
 661              	.LBB167:
  67:src/../h/SleepingList.hpp ****             }
  68:src/../h/SleepingList.hpp ****             if(temp == tail){
 662              		.loc 5 68 13 is_stmt 1
 663              	.LBB144:
 664 0348 6304270B 		beq	a4,s2,.L59
 665              	.LBB145:
  69:src/../h/SleepingList.hpp ****                 if(slice >= tail->relativeTime){
  70:src/../h/SleepingList.hpp ****                     Elem* newElem = new Elem(newSleep, slice - tail->relativeTime, nullptr);
  71:src/../h/SleepingList.hpp ****                     tail->next = newElem;
  72:src/../h/SleepingList.hpp ****                     tail = newElem;
  73:src/../h/SleepingList.hpp ****                 } else {
  74:src/../h/SleepingList.hpp ****                     Elem* newElem = new Elem(newSleep, slice, tail);
  75:src/../h/SleepingList.hpp ****                     if(prev){
  76:src/../h/SleepingList.hpp ****                         prev->next = newElem;
  77:src/../h/SleepingList.hpp ****                     } else {
  78:src/../h/SleepingList.hpp ****                         head = newElem;
  79:src/../h/SleepingList.hpp ****                     }
  80:src/../h/SleepingList.hpp ****                     tail->relativeTime -= slice;
  81:src/../h/SleepingList.hpp ****                 }
  82:src/../h/SleepingList.hpp ****             } else {
  83:src/../h/SleepingList.hpp ****                 Elem* newElem = new Elem(newSleep, slice, temp);
 666              		.loc 5 83 17
 667              	.LVL55:
 668              	.LBB146:
 669              	.LBB147:
  16:src/../h/SleepingList.hpp ****         }
 670              		.loc 5 16 13
  16:src/../h/SleepingList.hpp ****         }
 671              		.loc 5 16 46 is_stmt 0
 672 034c 13058001 		li	a0,24
 673              	.LVL56:
 674 0350 97000000 		call	_ZN15MemoryAllocator9mem_allocEm@plt
 674      E7800000 
 675              	.LVL57:
 676              	.LBE147:
 677              	.LBE146:
 678              	.LBB148:
 679              	.LBB149:
  13:src/../h/SleepingList.hpp **** 
 680              		.loc 5 13 119
 681 0358 23305501 		sd	s5,0(a0)
 682 035c 23349500 		sd	s1,8(a0)
 683 0360 23382501 		sd	s2,16(a0)
GAS LISTING /tmp/ccQOLE7E.s 			page 19


 684              	.LVL58:
 685              	.LBE149:
 686              	.LBE148:
  84:src/../h/SleepingList.hpp ****                 if(prev){
 687              		.loc 5 84 17 is_stmt 1
 688 0364 63040A12 		beqz	s4,.L48
  85:src/../h/SleepingList.hpp ****                     prev->next = newElem;
 689              		.loc 5 85 21
 690              		.loc 5 85 32 is_stmt 0
 691 0368 2338AA00 		sd	a0,16(s4)
 692              	.L49:
  86:src/../h/SleepingList.hpp ****                 } else {
  87:src/../h/SleepingList.hpp ****                     head = newElem;
  88:src/../h/SleepingList.hpp ****                 }
  89:src/../h/SleepingList.hpp ****                 temp->relativeTime -= slice;
 693              		.loc 5 89 17 is_stmt 1
 694              		.loc 5 89 36 is_stmt 0
 695 036c 83358900 		ld	a1,8(s2)
 696 0370 B3849540 		sub	s1,a1,s1
 697              	.LVL59:
 698 0374 23349900 		sd	s1,8(s2)
 699              	.LVL60:
 700              	.L42:
 701              	.LBE145:
 702              	.LBE144:
 703              	.LBE167:
 704              	.LBE142:
 705              	.LBE141:
  60:src/_sem.cpp  ****         blocked.addTail(_thread::running);
 706              		.loc 1 60 9 is_stmt 1
 707              		.loc 1 60 24 is_stmt 0
 708 0378 97070000 		la	a5,_ZN7_thread7runningE
 708      83B70700 
 709 0380 83B40700 		ld	s1,0(a5)
 710              	.LVL61:
 711              	.LBB170:
 712              	.LBB171:
  36:src/../h/ThreadList.hpp ****         if(tail != nullptr){
 713              		.loc 2 36 9 is_stmt 1
 714              	.LBB172:
 715              	.LBB173:
  16:src/../h/ThreadList.hpp ****         }
 716              		.loc 2 16 13
  16:src/../h/ThreadList.hpp ****         }
 717              		.loc 2 16 46 is_stmt 0
 718 0384 13050001 		li	a0,16
 719 0388 97000000 		call	_ZN15MemoryAllocator9mem_allocEm@plt
 719      E7800000 
 720              	.LVL62:
 721              	.LBE173:
 722              	.LBE172:
 723              	.LBB174:
 724              	.LBB175:
  14:src/../h/ThreadList.hpp ****         static void* operator new(size_t size){
 725              		.loc 2 14 55
 726 0390 23309500 		sd	s1,0(a0)
 727 0394 23340500 		sd	zero,8(a0)
GAS LISTING /tmp/ccQOLE7E.s 			page 20


 728              	.LVL63:
 729              	.LBE175:
 730              	.LBE174:
  37:src/../h/ThreadList.hpp ****             tail->next = elem;
 731              		.loc 2 37 9 is_stmt 1
  37:src/../h/ThreadList.hpp ****             tail->next = elem;
 732              		.loc 2 37 12 is_stmt 0
 733 0398 83B70901 		ld	a5,16(s3)
  37:src/../h/ThreadList.hpp ****             tail->next = elem;
 734              		.loc 2 37 9
 735 039c 63800710 		beqz	a5,.L50
  38:src/../h/ThreadList.hpp ****             tail = elem;
 736              		.loc 2 38 13 is_stmt 1
  38:src/../h/ThreadList.hpp ****             tail = elem;
 737              		.loc 2 38 24 is_stmt 0
 738 03a0 23B4A700 		sd	a0,8(a5)
  39:src/../h/ThreadList.hpp ****         } else {
 739              		.loc 2 39 13 is_stmt 1
  39:src/../h/ThreadList.hpp ****         } else {
 740              		.loc 2 39 18 is_stmt 0
 741 03a4 23B8A900 		sd	a0,16(s3)
 742              	.L51:
 743              	.LVL64:
 744              	.LBE171:
 745              	.LBE170:
  61:src/_sem.cpp  ****         _thread::running->setTimedWait(true);
 746              		.loc 1 61 9 is_stmt 1
 747              		.loc 1 61 39 is_stmt 0
 748 03a8 97070000 		la	a5,_ZN7_thread7runningE
 748      83B70700 
 749 03b0 83B70700 		ld	a5,0(a5)
 750              	.LVL65:
 751              	.LBB177:
 752              	.LBB178:
  72:src/../h/_thread.hpp ****     void setTimedWait(bool tmdw){timedWait = tmdw;}
 753              		.loc 3 72 34 is_stmt 1
 754              		.loc 3 72 44 is_stmt 0
 755 03b4 13071000 		li	a4,1
 756 03b8 2381E702 		sb	a4,34(a5)
 757              	.LVL66:
 758              	.LBE178:
 759              	.LBE177:
  62:src/_sem.cpp  ****         _thread::running->setBlocked(true);
 760              		.loc 1 62 9 is_stmt 1
 761              	.LBB179:
 762              	.LBB180:
  71:src/../h/_thread.hpp ****     void setTimedWait(bool tmdw){timedWait = tmdw;}
 763              		.loc 3 71 32
  71:src/../h/_thread.hpp ****     void setTimedWait(bool tmdw){timedWait = tmdw;}
 764              		.loc 3 71 40 is_stmt 0
 765 03bc 2380E702 		sb	a4,32(a5)
 766              	.LVL67:
 767              	.LBE180:
 768              	.LBE179:
  63:src/_sem.cpp  ****         _thread::running->mySem = this;
 769              		.loc 1 63 9 is_stmt 1
 770              		.loc 1 63 33 is_stmt 0
GAS LISTING /tmp/ccQOLE7E.s 			page 21


 771 03c0 23BC3703 		sd	s3,56(a5)
  64:src/_sem.cpp  ****         _thread::dispatch();
 772              		.loc 1 64 9 is_stmt 1
 773              		.loc 1 64 26 is_stmt 0
 774 03c4 97000000 		call	_ZN7_thread8dispatchEv@plt
 774      E7800000 
 775              	.LVL68:
  65:src/_sem.cpp  ****     }
  66:src/_sem.cpp  **** }
 776              		.loc 1 66 1
 777 03cc 83308103 		ld	ra,56(sp)
 778              		.cfi_remember_state
 779              		.cfi_restore 1
 780 03d0 03340103 		ld	s0,48(sp)
 781              		.cfi_restore 8
 782              		.cfi_def_cfa 2, 64
 783 03d4 83348102 		ld	s1,40(sp)
 784              		.cfi_restore 9
 785 03d8 03390102 		ld	s2,32(sp)
 786              		.cfi_restore 18
 787 03dc 83398101 		ld	s3,24(sp)
 788              		.cfi_restore 19
 789              	.LVL69:
 790 03e0 033A0101 		ld	s4,16(sp)
 791              		.cfi_restore 20
 792 03e4 833A8100 		ld	s5,8(sp)
 793              		.cfi_restore 21
 794 03e8 13010104 		addi	sp,sp,64
 795              		.cfi_def_cfa_offset 0
 796 03ec 67800000 		jr	ra
 797              	.LVL70:
 798              	.L59:
 799              		.cfi_restore_state
  69:src/../h/SleepingList.hpp ****                     Elem* newElem = new Elem(newSleep, slice - tail->relativeTime, nullptr);
 800              		.loc 5 69 17 is_stmt 1
 801              	.LBB181:
 802              	.LBB169:
 803              	.LBB168:
 804              	.LBB162:
 805              	.LBB150:
  69:src/../h/SleepingList.hpp ****                     Elem* newElem = new Elem(newSleep, slice - tail->relativeTime, nullptr);
 806              		.loc 5 69 35 is_stmt 0
 807 03f0 83378700 		ld	a5,8(a4)
  69:src/../h/SleepingList.hpp ****                     Elem* newElem = new Elem(newSleep, slice - tail->relativeTime, nullptr);
 808              		.loc 5 69 17
 809 03f4 63E0F404 		bltu	s1,a5,.L45
 810              	.LBB151:
  70:src/../h/SleepingList.hpp ****                     tail->next = newElem;
 811              		.loc 5 70 21 is_stmt 1
 812              	.LVL71:
 813              	.LBB152:
 814              	.LBB153:
  16:src/../h/SleepingList.hpp ****         }
 815              		.loc 5 16 13
  16:src/../h/SleepingList.hpp ****         }
 816              		.loc 5 16 46 is_stmt 0
 817 03f8 13058001 		li	a0,24
GAS LISTING /tmp/ccQOLE7E.s 			page 22


 818              	.LVL72:
 819 03fc 97000000 		call	_ZN15MemoryAllocator9mem_allocEm@plt
 819      E7800000 
 820              	.LVL73:
 821              	.LBE153:
 822              	.LBE152:
  70:src/../h/SleepingList.hpp ****                     tail->next = newElem;
 823              		.loc 5 70 64
 824 0404 97070000 		la	a5,_ZN5RISCV16semTimedWaitListE
 824      83B70700 
 825 040c 03B78700 		ld	a4,8(a5)
  70:src/../h/SleepingList.hpp ****                     tail->next = newElem;
 826              		.loc 5 70 70
 827 0410 03378700 		ld	a4,8(a4)
  70:src/../h/SleepingList.hpp ****                     tail->next = newElem;
 828              		.loc 5 70 91
 829 0414 B384E440 		sub	s1,s1,a4
 830              	.LVL74:
 831              	.LBB154:
 832              	.LBB155:
  13:src/../h/SleepingList.hpp **** 
 833              		.loc 5 13 119
 834 0418 23305501 		sd	s5,0(a0)
 835 041c 23349500 		sd	s1,8(a0)
 836 0420 23380500 		sd	zero,16(a0)
 837              	.LVL75:
 838              	.LBE155:
 839              	.LBE154:
  71:src/../h/SleepingList.hpp ****                     tail = newElem;
 840              		.loc 5 71 21 is_stmt 1
 841 0424 03B78700 		ld	a4,8(a5)
  71:src/../h/SleepingList.hpp ****                     tail = newElem;
 842              		.loc 5 71 32 is_stmt 0
 843 0428 2338A700 		sd	a0,16(a4)
  72:src/../h/SleepingList.hpp ****                 } else {
 844              		.loc 5 72 21 is_stmt 1
  72:src/../h/SleepingList.hpp ****                 } else {
 845              		.loc 5 72 26 is_stmt 0
 846 042c 23B4A700 		sd	a0,8(a5)
 847              	.LBE151:
 848 0430 6FF09FF4 		j	.L42
 849              	.LVL76:
 850              	.L45:
 851              	.LBB156:
  74:src/../h/SleepingList.hpp ****                     if(prev){
 852              		.loc 5 74 21 is_stmt 1
 853              	.LBB157:
 854              	.LBB158:
  16:src/../h/SleepingList.hpp ****         }
 855              		.loc 5 16 13
  16:src/../h/SleepingList.hpp ****         }
 856              		.loc 5 16 46 is_stmt 0
 857 0434 13058001 		li	a0,24
 858              	.LVL77:
 859 0438 97000000 		call	_ZN15MemoryAllocator9mem_allocEm@plt
 859      E7800000 
 860              	.LVL78:
GAS LISTING /tmp/ccQOLE7E.s 			page 23


 861              	.LBE158:
 862              	.LBE157:
  74:src/../h/SleepingList.hpp ****                     if(prev){
 863              		.loc 5 74 67
 864 0440 97070000 		la	a5,_ZN5RISCV16semTimedWaitListE
 864      83B70700 
 865 0448 83B78700 		ld	a5,8(a5)
 866              	.LVL79:
 867              	.LBB159:
 868              	.LBB160:
  13:src/../h/SleepingList.hpp **** 
 869              		.loc 5 13 119
 870 044c 23305501 		sd	s5,0(a0)
 871 0450 23349500 		sd	s1,8(a0)
 872 0454 2338F500 		sd	a5,16(a0)
 873              	.LVL80:
 874              	.LBE160:
 875              	.LBE159:
  75:src/../h/SleepingList.hpp ****                         prev->next = newElem;
 876              		.loc 5 75 21 is_stmt 1
 877 0458 63020A02 		beqz	s4,.L46
  76:src/../h/SleepingList.hpp ****                     } else {
 878              		.loc 5 76 25
  76:src/../h/SleepingList.hpp ****                     } else {
 879              		.loc 5 76 36 is_stmt 0
 880 045c 2338AA00 		sd	a0,16(s4)
 881              	.L47:
  80:src/../h/SleepingList.hpp ****                 }
 882              		.loc 5 80 21 is_stmt 1
 883 0460 97070000 		la	a5,_ZN5RISCV16semTimedWaitListE
 883      83B70700 
 884 0468 03B78700 		ld	a4,8(a5)
  80:src/../h/SleepingList.hpp ****                 }
 885              		.loc 5 80 40 is_stmt 0
 886 046c 83378700 		ld	a5,8(a4)
 887 0470 B3849740 		sub	s1,a5,s1
 888              	.LVL81:
 889 0474 23349700 		sd	s1,8(a4)
 890 0478 6FF01FF0 		j	.L42
 891              	.LVL82:
 892              	.L46:
  78:src/../h/SleepingList.hpp ****                     }
 893              		.loc 5 78 25 is_stmt 1
  78:src/../h/SleepingList.hpp ****                     }
 894              		.loc 5 78 30 is_stmt 0
 895 047c 97070000 		la	a5,_ZN5RISCV16semTimedWaitListE
 895      83B70700 
 896 0484 23B0A700 		sd	a0,0(a5)
 897 0488 6FF09FFD 		j	.L47
 898              	.LVL83:
 899              	.L48:
 900              	.LBE156:
 901              	.LBE150:
 902              	.LBB161:
  87:src/../h/SleepingList.hpp ****                 }
 903              		.loc 5 87 21 is_stmt 1
  87:src/../h/SleepingList.hpp ****                 }
GAS LISTING /tmp/ccQOLE7E.s 			page 24


 904              		.loc 5 87 26 is_stmt 0
 905 048c 97070000 		la	a5,_ZN5RISCV16semTimedWaitListE
 905      83B70700 
 906 0494 23B0A700 		sd	a0,0(a5)
 907 0498 6FF05FED 		j	.L49
 908              	.LVL84:
 909              	.L50:
 910              	.LBE161:
 911              	.LBE162:
 912              	.LBE168:
 913              	.LBE169:
 914              	.LBE181:
 915              	.LBB182:
 916              	.LBB176:
  41:src/../h/ThreadList.hpp ****             tail = elem;
 917              		.loc 2 41 13 is_stmt 1
  41:src/../h/ThreadList.hpp ****             tail = elem;
 918              		.loc 2 41 18 is_stmt 0
 919 049c 23B4A900 		sd	a0,8(s3)
  42:src/../h/ThreadList.hpp ****         }
 920              		.loc 2 42 13 is_stmt 1
  42:src/../h/ThreadList.hpp ****         }
 921              		.loc 2 42 18 is_stmt 0
 922 04a0 23B8A900 		sd	a0,16(s3)
 923 04a4 6FF05FF0 		j	.L51
 924              	.LBE176:
 925              	.LBE182:
 926              		.cfi_endproc
 927              	.LFE63:
 929              		.align	2
 930              		.globl	_ZN4_sem16deblockTimedWaitEP7_thread
 932              	_ZN4_sem16deblockTimedWaitEP7_thread:
 933              	.LFB64:
  67:src/_sem.cpp  **** 
  68:src/_sem.cpp  **** void _sem::deblockTimedWait(_thread *wake) {
 934              		.loc 1 68 44 is_stmt 1
 935              		.cfi_startproc
 936              	.LVL85:
 937 04a8 130101FE 		addi	sp,sp,-32
 938              		.cfi_def_cfa_offset 32
 939 04ac 233C1100 		sd	ra,24(sp)
 940 04b0 23388100 		sd	s0,16(sp)
 941 04b4 23349100 		sd	s1,8(sp)
 942 04b8 23302101 		sd	s2,0(sp)
 943              		.cfi_offset 1, -8
 944              		.cfi_offset 8, -16
 945              		.cfi_offset 9, -24
 946              		.cfi_offset 18, -32
 947 04bc 13040102 		addi	s0,sp,32
 948              		.cfi_def_cfa 8, 0
 949 04c0 13090500 		mv	s2,a0
 950 04c4 93840500 		mv	s1,a1
  69:src/_sem.cpp  ****     blocked.remove(wake);
 951              		.loc 1 69 5
 952              	.LVL86:
 953              	.LBB189:
 954              	.LBB190:
GAS LISTING /tmp/ccQOLE7E.s 			page 25


  59:src/../h/ThreadList.hpp ****         return nullptr;
  60:src/../h/ThreadList.hpp ****     }
  61:src/../h/ThreadList.hpp **** 
  62:src/../h/ThreadList.hpp ****     _thread* remove(_thread* victim){
  63:src/../h/ThreadList.hpp ****         Elem* curr = head;
 955              		.loc 2 63 9
 956              		.loc 2 63 15 is_stmt 0
 957 04c8 03358500 		ld	a0,8(a0)
 958              	.LVL87:
 959              	.L62:
  64:src/../h/ThreadList.hpp ****         for(; curr->next && curr->next->elem != victim; curr = curr->next);
 960              		.loc 2 64 9 is_stmt 1
 961              		.loc 2 64 26
 962 04cc 13070500 		mv	a4,a0
 963              		.loc 2 64 21 is_stmt 0
 964 04d0 03358500 		ld	a0,8(a0)
 965              	.LVL88:
 966              		.loc 2 64 26
 967 04d4 63060500 		beqz	a0,.L61
 968              		.loc 2 64 41
 969 04d8 83370500 		ld	a5,0(a0)
 970              		.loc 2 64 26
 971 04dc E398F4FE 		bne	s1,a5,.L62
 972              	.L61:
  65:src/../h/ThreadList.hpp ****         if(!curr->next) return nullptr;
 973              		.loc 2 65 9 is_stmt 1
 974 04e0 630A0500 		beqz	a0,.L63
  66:src/../h/ThreadList.hpp ****         Elem* old = curr->next;
 975              		.loc 2 66 9
 976              	.LVL89:
  67:src/../h/ThreadList.hpp ****         _thread* ret = old->elem;
 977              		.loc 2 67 9
  68:src/../h/ThreadList.hpp ****         curr->next = old->next;
 978              		.loc 2 68 9
 979              		.loc 2 68 27 is_stmt 0
 980 04e4 83378500 		ld	a5,8(a0)
 981              		.loc 2 68 20
 982 04e8 2334F700 		sd	a5,8(a4)
 983              	.LVL90:
  69:src/../h/ThreadList.hpp ****         delete old;
 984              		.loc 2 69 9 is_stmt 1
 985              	.LBB191:
 986              	.LBB192:
  24:src/../h/ThreadList.hpp ****         }
 987              		.loc 2 24 13
  24:src/../h/ThreadList.hpp ****         }
 988              		.loc 2 24 38 is_stmt 0
 989 04ec 97000000 		call	_ZN15MemoryAllocator8mem_freeEPv@plt
 989      E7800000 
 990              	.LVL91:
 991              	.LBE192:
 992              	.LBE191:
  70:src/../h/ThreadList.hpp ****         return ret;
 993              		.loc 2 70 9 is_stmt 1
 994              	.L63:
 995              	.LBE190:
 996              	.LBE189:
GAS LISTING /tmp/ccQOLE7E.s 			page 26


  70:src/_sem.cpp  ****     value++;
 997              		.loc 1 70 5
 998 04f4 83270900 		lw	a5,0(s2)
 999              		.loc 1 70 10 is_stmt 0
 1000 04f8 9B871700 		addiw	a5,a5,1
 1001 04fc 2320F900 		sw	a5,0(s2)
  71:src/_sem.cpp  ****     wake->setBlocked(false);
 1002              		.loc 1 71 5 is_stmt 1
 1003              	.LVL92:
 1004              	.LBB193:
 1005              	.LBB194:
  71:src/../h/_thread.hpp ****     void setTimedWait(bool tmdw){timedWait = tmdw;}
 1006              		.loc 3 71 32
  71:src/../h/_thread.hpp ****     void setTimedWait(bool tmdw){timedWait = tmdw;}
 1007              		.loc 3 71 40 is_stmt 0
 1008 0500 23800402 		sb	zero,32(s1)
 1009              	.LVL93:
 1010              	.LBE194:
 1011              	.LBE193:
  72:src/_sem.cpp  ****     wake->mySem = nullptr;
 1012              		.loc 1 72 5 is_stmt 1
 1013              		.loc 1 72 17 is_stmt 0
 1014 0504 23BC0402 		sd	zero,56(s1)
  73:src/_sem.cpp  ****     Scheduler::put(wake);
 1015              		.loc 1 73 5 is_stmt 1
 1016              		.loc 1 73 19 is_stmt 0
 1017 0508 13850400 		mv	a0,s1
 1018 050c 97000000 		call	_ZN9Scheduler3putEP7_thread@plt
 1018      E7800000 
 1019              	.LVL94:
  74:src/_sem.cpp  **** }
 1020              		.loc 1 74 1
 1021 0514 83308101 		ld	ra,24(sp)
 1022              		.cfi_restore 1
 1023 0518 03340101 		ld	s0,16(sp)
 1024              		.cfi_restore 8
 1025              		.cfi_def_cfa 2, 32
 1026 051c 83348100 		ld	s1,8(sp)
 1027              		.cfi_restore 9
 1028              	.LVL95:
 1029 0520 03390100 		ld	s2,0(sp)
 1030              		.cfi_restore 18
 1031              	.LVL96:
 1032 0524 13010102 		addi	sp,sp,32
 1033              		.cfi_def_cfa_offset 0
 1034 0528 67800000 		jr	ra
 1035              		.cfi_endproc
 1036              	.LFE64:
 1038              	.Letext0:
 1039              		.file 6 "src/../h/../lib/hw.h"
 1040              		.file 7 "src/../h/MemAlloc.hpp"
 1041              		.file 8 "src/../h/syscall_c.h"
 1042              		.file 9 "src/../h/Scheduler.hpp"
GAS LISTING /tmp/ccQOLE7E.s 			page 27

