GAS LISTING /tmp/ccVwpxMU.s 			page 1


   1              		.file	"_thread.cpp"
   2              		.option pic
   3              		.option norelax
   4              		.text
   5              	.Ltext0:
   6              		.align	2
   7              		.globl	_ZN7_thread7wrapperEv
   9              	_ZN7_thread7wrapperEv:
  10              	.LFB56:
  11              		.file 1 "src/_thread.cpp"
   1:src/_thread.cpp **** //
   2:src/_thread.cpp **** // Created by os on 5/28/24.
   3:src/_thread.cpp **** //
   4:src/_thread.cpp **** #include "../h/_thread.hpp"
   5:src/_thread.cpp **** 
   6:src/_thread.cpp **** _thread* _thread::running = nullptr;
   7:src/_thread.cpp **** uint64  _thread::runningTimeSlice = 0;
   8:src/_thread.cpp **** 
   9:src/_thread.cpp **** void _thread::dispatch() {
  10:src/_thread.cpp ****     _thread* old = _thread::running;
  11:src/_thread.cpp **** 
  12:src/_thread.cpp ****     if(!running->isFinished() && !running->isBlocked() && !running->isSleeping()){
  13:src/_thread.cpp ****         Scheduler::put(running);
  14:src/_thread.cpp ****     }
  15:src/_thread.cpp ****     _thread* next = Scheduler::get();
  16:src/_thread.cpp ****     _thread::running = next;
  17:src/_thread.cpp ****     _thread::runningTimeSlice = 0;
  18:src/_thread.cpp ****     if(old != _thread::running) {
  19:src/_thread.cpp ****         switchContext(&old->context, &running->context);
  20:src/_thread.cpp ****     }
  21:src/_thread.cpp **** }
  22:src/_thread.cpp **** 
  23:src/_thread.cpp **** _thread *_thread::createThread(_thread::Func func, void *args, uint64 mra) {
  24:src/_thread.cpp ****     _thread* newThread = new _thread(func, args, mra);
  25:src/_thread.cpp ****     return newThread;
  26:src/_thread.cpp **** }
  27:src/_thread.cpp **** 
  28:src/_thread.cpp **** void _thread::wrapper() {
  12              		.loc 1 28 25
  13              		.cfi_startproc
  14 0000 130101FE 		addi	sp,sp,-32
  15              		.cfi_def_cfa_offset 32
  16 0004 233C1100 		sd	ra,24(sp)
  17 0008 23388100 		sd	s0,16(sp)
  18 000c 23349100 		sd	s1,8(sp)
  19              		.cfi_offset 1, -8
  20              		.cfi_offset 8, -16
  21              		.cfi_offset 9, -24
  22 0010 13040102 		addi	s0,sp,32
  23              		.cfi_def_cfa 8, 0
  29:src/_thread.cpp ****     _thread::running->body(_thread::running->args);
  24              		.loc 1 29 5
  25              		.loc 1 29 23 is_stmt 0
  26 0014 97040000 		lla	s1,.LANCHOR0
  26      93840400 
  27 001c 83B70400 		ld	a5,0(s1)
  28 0020 03B70700 		ld	a4,0(a5)
GAS LISTING /tmp/ccVwpxMU.s 			page 2


  29              		.loc 1 29 27
  30 0024 03B58701 		ld	a0,24(a5)
  31 0028 E7000700 		jalr	a4
  32              	.LVL0:
  30:src/_thread.cpp ****     running->setFinished();
  33              		.loc 1 30 5 is_stmt 1
  34              		.loc 1 30 25 is_stmt 0
  35 002c 83B70400 		ld	a5,0(s1)
  36              	.LVL1:
  37              	.LBB19:
  38              	.LBB20:
  39              		.file 2 "src/../h/_thread.hpp"
   1:src/../h/_thread.hpp **** //
   2:src/../h/_thread.hpp **** // Created by os on 5/20/24.
   3:src/../h/_thread.hpp **** //
   4:src/../h/_thread.hpp **** 
   5:src/../h/_thread.hpp **** #ifndef PROJECT_BASE_V1_1__THREAD_HPP
   6:src/../h/_thread.hpp **** #define PROJECT_BASE_V1_1__THREAD_HPP
   7:src/../h/_thread.hpp **** #include "RISCV.hpp"
   8:src/../h/_thread.hpp **** #include "../lib/hw.h"
   9:src/../h/_thread.hpp **** #include "MemAlloc.hpp"
  10:src/../h/_thread.hpp **** #include "Scheduler.hpp"
  11:src/../h/_thread.hpp **** 
  12:src/../h/_thread.hpp **** int main(int, char**);
  13:src/../h/_thread.hpp **** 
  14:src/../h/_thread.hpp **** void userMain(void*);
  15:src/../h/_thread.hpp **** 
  16:src/../h/_thread.hpp **** class _thread{
  17:src/../h/_thread.hpp **** public:
  18:src/../h/_thread.hpp ****     using Func = void(*)(void*);
  19:src/../h/_thread.hpp ****     friend class RISCV;
  20:src/../h/_thread.hpp ****     struct Context{
  21:src/../h/_thread.hpp ****         uint64 ra;
  22:src/../h/_thread.hpp ****         uint64 sp;
  23:src/../h/_thread.hpp ****     };
  24:src/../h/_thread.hpp ****     Func body;
  25:src/../h/_thread.hpp ****     Context context;
  26:src/../h/_thread.hpp ****     void* args;
  27:src/../h/_thread.hpp ****     bool blocked;
  28:src/../h/_thread.hpp ****     bool finished;
  29:src/../h/_thread.hpp ****     bool timedWait;
  30:src/../h/_thread.hpp ****     bool isAdmin;
  31:src/../h/_thread.hpp ****     bool sleepWait = false;
  32:src/../h/_thread.hpp ****     uint64 timeSlice;
  33:src/../h/_thread.hpp ****     uint64* stack;
  34:src/../h/_thread.hpp ****     _sem* mySem = nullptr;
  35:src/../h/_thread.hpp **** 
  36:src/../h/_thread.hpp **** 
  37:src/../h/_thread.hpp **** public:
  38:src/../h/_thread.hpp **** 
  39:src/../h/_thread.hpp ****     static void outputThread(void *);
  40:src/../h/_thread.hpp **** 
  41:src/../h/_thread.hpp ****     static void wrapper();
  42:src/../h/_thread.hpp **** 
  43:src/../h/_thread.hpp ****     static _thread* running;
  44:src/../h/_thread.hpp ****     static uint64 runningTimeSlice;
  45:src/../h/_thread.hpp **** 
GAS LISTING /tmp/ccVwpxMU.s 			page 3


  46:src/../h/_thread.hpp **** 
  47:src/../h/_thread.hpp ****     _thread(Func body, void* args, uint64 mra);
  48:src/../h/_thread.hpp ****     bool isBlocked(){return blocked;}
  49:src/../h/_thread.hpp ****     bool isTimedWait(){return timedWait;}
  50:src/../h/_thread.hpp ****     bool isFinished(){return finished;}
  51:src/../h/_thread.hpp ****     bool isSleeping(){return sleepWait;}
  52:src/../h/_thread.hpp **** 
  53:src/../h/_thread.hpp **** 
  54:src/../h/_thread.hpp ****     static _thread* createThread(Func func, void* args, uint64 mra);
  55:src/../h/_thread.hpp **** 
  56:src/../h/_thread.hpp ****     static void switchContext(Context* old, Context* newC);
  57:src/../h/_thread.hpp **** 
  58:src/../h/_thread.hpp ****     static void dispatch();
  59:src/../h/_thread.hpp **** 
  60:src/../h/_thread.hpp **** 
  61:src/../h/_thread.hpp ****     void* operator new(size_t size){
  62:src/../h/_thread.hpp ****         return MemoryAllocator::mem_alloc(size);
  63:src/../h/_thread.hpp ****     }
  64:src/../h/_thread.hpp **** 
  65:src/../h/_thread.hpp **** 
  66:src/../h/_thread.hpp ****     void operator delete (void* ptr){
  67:src/../h/_thread.hpp ****         MemoryAllocator::mem_free(ptr);
  68:src/../h/_thread.hpp ****     }
  69:src/../h/_thread.hpp **** 
  70:src/../h/_thread.hpp **** 
  71:src/../h/_thread.hpp ****     void setBlocked(bool blck){blocked = blck;}
  72:src/../h/_thread.hpp ****     void setTimedWait(bool tmdw){timedWait = tmdw;}
  73:src/../h/_thread.hpp ****     void setSleepWait(bool sleep){sleepWait = sleep;}
  74:src/../h/_thread.hpp ****     void setFinished(){finished = true;}
  40              		.loc 2 74 24 is_stmt 1
  41              		.loc 2 74 33 is_stmt 0
  42 0030 13071000 		li	a4,1
  43 0034 A380E702 		sb	a4,33(a5)
  44              	.LVL2:
  45              	.LBE20:
  46              	.LBE19:
  31:src/_thread.cpp ****     thread_exit();
  47              		.loc 1 31 5 is_stmt 1
  48              		.loc 1 31 16 is_stmt 0
  49 0038 97000000 		call	_Z11thread_exitv@plt
  49      E7800000 
  50              	.LVL3:
  32:src/_thread.cpp **** }
  51              		.loc 1 32 1
  52 0040 83308101 		ld	ra,24(sp)
  53              		.cfi_restore 1
  54 0044 03340101 		ld	s0,16(sp)
  55              		.cfi_restore 8
  56              		.cfi_def_cfa 2, 32
  57 0048 83348100 		ld	s1,8(sp)
  58              		.cfi_restore 9
  59 004c 13010102 		addi	sp,sp,32
  60              		.cfi_def_cfa_offset 0
  61 0050 67800000 		jr	ra
  62              		.cfi_endproc
  63              	.LFE56:
  65              		.align	2
GAS LISTING /tmp/ccVwpxMU.s 			page 4


  66              		.globl	_ZN7_thread8dispatchEv
  68              	_ZN7_thread8dispatchEv:
  69              	.LFB54:
   9:src/_thread.cpp ****     _thread* old = _thread::running;
  70              		.loc 1 9 26 is_stmt 1
  71              		.cfi_startproc
  72 0054 130101FE 		addi	sp,sp,-32
  73              		.cfi_def_cfa_offset 32
  74 0058 233C1100 		sd	ra,24(sp)
  75 005c 23388100 		sd	s0,16(sp)
  76 0060 23349100 		sd	s1,8(sp)
  77              		.cfi_offset 1, -8
  78              		.cfi_offset 8, -16
  79              		.cfi_offset 9, -24
  80 0064 13040102 		addi	s0,sp,32
  81              		.cfi_def_cfa 8, 0
  10:src/_thread.cpp **** 
  82              		.loc 1 10 5
  10:src/_thread.cpp **** 
  83              		.loc 1 10 14 is_stmt 0
  84 0068 97040000 		ld	s1,.LANCHOR0
  84      83B40400 
  85              	.LVL4:
  12:src/_thread.cpp ****         Scheduler::put(running);
  86              		.loc 1 12 5 is_stmt 1
  87              	.LBB21:
  88              	.LBB22:
  50:src/../h/_thread.hpp ****     bool isSleeping(){return sleepWait;}
  89              		.loc 2 50 23
  50:src/../h/_thread.hpp ****     bool isSleeping(){return sleepWait;}
  90              		.loc 2 50 30 is_stmt 0
  91 0070 83C71402 		lbu	a5,33(s1)
  92              	.LVL5:
  93              	.LBE22:
  94              	.LBE21:
  12:src/_thread.cpp ****         Scheduler::put(running);
  95              		.loc 1 12 56
  96 0074 639A0700 		bnez	a5,.L4
  97              	.LVL6:
  98              	.LBB23:
  99              	.LBB24:
  48:src/../h/_thread.hpp ****     bool isTimedWait(){return timedWait;}
 100              		.loc 2 48 22 is_stmt 1 discriminator 1
  48:src/../h/_thread.hpp ****     bool isTimedWait(){return timedWait;}
 101              		.loc 2 48 29 is_stmt 0 discriminator 1
 102 0078 83C70402 		lbu	a5,32(s1)
 103              	.LVL7:
 104              	.LBE24:
 105              	.LBE23:
  12:src/_thread.cpp ****         Scheduler::put(running);
 106              		.loc 1 12 31 discriminator 1
 107 007c 63960700 		bnez	a5,.L4
 108              	.LVL8:
 109              	.LBB25:
 110              	.LBB26:
  51:src/../h/_thread.hpp **** 
 111              		.loc 2 51 23 is_stmt 1 discriminator 3
GAS LISTING /tmp/ccVwpxMU.s 			page 5


  51:src/../h/_thread.hpp **** 
 112              		.loc 2 51 30 is_stmt 0 discriminator 3
 113 0080 83C74402 		lbu	a5,36(s1)
 114              	.LVL9:
 115              	.LBE26:
 116              	.LBE25:
  12:src/_thread.cpp ****         Scheduler::put(running);
 117              		.loc 1 12 56 discriminator 3
 118 0084 63820704 		beqz	a5,.L7
 119              	.L4:
  15:src/_thread.cpp ****     _thread::running = next;
 120              		.loc 1 15 5 is_stmt 1
  15:src/_thread.cpp ****     _thread::running = next;
 121              		.loc 1 15 35 is_stmt 0
 122 0088 97000000 		call	_ZN9Scheduler3getEv@plt
 122      E7800000 
 123              	.LVL10:
  16:src/_thread.cpp ****     _thread::runningTimeSlice = 0;
 124              		.loc 1 16 5 is_stmt 1
  16:src/_thread.cpp ****     _thread::runningTimeSlice = 0;
 125              		.loc 1 16 22 is_stmt 0
 126 0090 97070000 		lla	a5,.LANCHOR0
 126      93870700 
 127 0098 23B0A700 		sd	a0,0(a5)
  17:src/_thread.cpp ****     if(old != _thread::running) {
 128              		.loc 1 17 5 is_stmt 1
  17:src/_thread.cpp ****     if(old != _thread::running) {
 129              		.loc 1 17 31 is_stmt 0
 130 009c 23B40700 		sd	zero,8(a5)
  18:src/_thread.cpp ****         switchContext(&old->context, &running->context);
 131              		.loc 1 18 5 is_stmt 1
 132 00a0 638AA400 		beq	s1,a0,.L3
  19:src/_thread.cpp ****     }
 133              		.loc 1 19 9
  19:src/_thread.cpp ****     }
 134              		.loc 1 19 22 is_stmt 0
 135 00a4 93058500 		addi	a1,a0,8
 136 00a8 13858400 		addi	a0,s1,8
 137              	.LVL11:
 138 00ac 97000000 		call	_ZN7_thread13switchContextEPNS_7ContextES1_@plt
 138      E7800000 
 139              	.LVL12:
 140              	.L3:
  21:src/_thread.cpp **** 
 141              		.loc 1 21 1
 142 00b4 83308101 		ld	ra,24(sp)
 143              		.cfi_remember_state
 144              		.cfi_restore 1
 145 00b8 03340101 		ld	s0,16(sp)
 146              		.cfi_restore 8
 147              		.cfi_def_cfa 2, 32
 148 00bc 83348100 		ld	s1,8(sp)
 149              		.cfi_restore 9
 150              	.LVL13:
 151 00c0 13010102 		addi	sp,sp,32
 152              		.cfi_def_cfa_offset 0
 153 00c4 67800000 		jr	ra
GAS LISTING /tmp/ccVwpxMU.s 			page 6


 154              	.LVL14:
 155              	.L7:
 156              		.cfi_restore_state
  13:src/_thread.cpp ****     }
 157              		.loc 1 13 9 is_stmt 1
  13:src/_thread.cpp ****     }
 158              		.loc 1 13 23 is_stmt 0
 159 00c8 13850400 		mv	a0,s1
 160 00cc 97000000 		call	_ZN9Scheduler3putEP7_thread@plt
 160      E7800000 
 161              	.LVL15:
 162 00d4 6FF05FFB 		j	.L4
 163              		.cfi_endproc
 164              	.LFE54:
 166              		.align	2
 167              		.globl	_ZN7_thread12outputThreadEPv
 169              	_ZN7_thread12outputThreadEPv:
 170              	.LFB57:
  33:src/_thread.cpp **** 
  34:src/_thread.cpp **** void _thread::outputThread(void *) {
 171              		.loc 1 34 36 is_stmt 1
 172              		.cfi_startproc
 173              	.L14:
  35:src/_thread.cpp ****     while (true){
 174              		.loc 1 35 5
  36:src/_thread.cpp ****         if(IO::outputBuffer.getCount() > 0) {
 175              		.loc 1 36 9
 176              	.LVL16:
 177              	.LBB27:
 178              	.LBB28:
 179              	.LBB29:
 180              		.file 3 "src/../h/buffer.hpp"
   1:src/../h/buffer.hpp **** //
   2:src/../h/buffer.hpp **** // Created by os on 6/25/24.
   3:src/../h/buffer.hpp **** //
   4:src/../h/buffer.hpp **** 
   5:src/../h/buffer.hpp **** #ifndef PROJECT_BASE_V1_1_BUFFER_HPP
   6:src/../h/buffer.hpp **** #define PROJECT_BASE_V1_1_BUFFER_HPP
   7:src/../h/buffer.hpp **** #include "_sem.hpp"
   8:src/../h/buffer.hpp **** 
   9:src/../h/buffer.hpp **** class Buffer{
  10:src/../h/buffer.hpp **** public:
  11:src/../h/buffer.hpp ****     Buffer();
  12:src/../h/buffer.hpp ****     void putc(char c);
  13:src/../h/buffer.hpp ****     char getc();
  14:src/../h/buffer.hpp ****     uint64 getCount(){return count;}
 181              		.loc 3 14 23
 182              		.loc 3 14 30 is_stmt 0
 183 00d8 97070000 		la	a5,_ZN2IO12outputBufferE
 183      83B70700 
 184 00e0 83B78711 		ld	a5,280(a5)
 185              	.LVL17:
 186              	.LBE29:
 187              	.LBE28:
 188              		.loc 1 36 9
 189 00e4 E38A07FE 		beqz	a5,.L14
 190              	.LBB31:
GAS LISTING /tmp/ccVwpxMU.s 			page 7


  37:src/_thread.cpp ****             while (*((char *) CONSOLE_STATUS) & CONSOLE_TX_STATUS_BIT) {
 191              		.loc 1 37 13 is_stmt 1
 192              		.loc 1 37 49
 193              		.loc 1 37 20 is_stmt 0
 194 00e8 97070000 		la	a5,CONSOLE_STATUS
 194      83B70700 
 195 00f0 83B70700 		ld	a5,0(a5)
 196 00f4 83C70700 		lbu	a5,0(a5)
 197              		.loc 1 37 49
 198 00f8 93F70702 		andi	a5,a5,32
 199 00fc E38E07FC 		beqz	a5,.L14
 200              	.LBE31:
 201              	.LBE27:
  34:src/_thread.cpp ****     while (true){
 202              		.loc 1 34 36
 203 0100 130101FF 		addi	sp,sp,-16
 204              		.cfi_def_cfa_offset 16
 205 0104 23341100 		sd	ra,8(sp)
 206 0108 23308100 		sd	s0,0(sp)
 207              		.cfi_offset 1, -8
 208              		.cfi_offset 8, -16
 209 010c 13040101 		addi	s0,sp,16
 210              		.cfi_def_cfa 8, 0
 211              	.L15:
 212              	.LBB35:
 213              	.LBB33:
 214              	.LBB32:
  38:src/_thread.cpp ****                 char c = IO::outputBuffer.getc();
 215              		.loc 1 38 17 is_stmt 1
 216              		.loc 1 38 47 is_stmt 0
 217 0110 17050000 		la	a0,_ZN2IO12outputBufferE
 217      03350500 
 218 0118 97000000 		call	_ZN6Buffer4getcEv@plt
 218      E7800000 
 219              	.LVL18:
  39:src/_thread.cpp ****                 *((char *) CONSOLE_TX_DATA) = c;
 220              		.loc 1 39 17 is_stmt 1
 221 0120 97070000 		la	a5,CONSOLE_TX_DATA
 221      83B70700 
 222 0128 83B70700 		ld	a5,0(a5)
 223              		.loc 1 39 45 is_stmt 0
 224 012c 2380A700 		sb	a0,0(a5)
 225              	.L11:
 226              	.LBE32:
  37:src/_thread.cpp ****                 char c = IO::outputBuffer.getc();
 227              		.loc 1 37 13 is_stmt 1
  37:src/_thread.cpp ****                 char c = IO::outputBuffer.getc();
 228              		.loc 1 37 49
  37:src/_thread.cpp ****                 char c = IO::outputBuffer.getc();
 229              		.loc 1 37 20 is_stmt 0
 230 0130 97070000 		la	a5,CONSOLE_STATUS
 230      83B70700 
 231 0138 83B70700 		ld	a5,0(a5)
 232 013c 83C70700 		lbu	a5,0(a5)
  37:src/_thread.cpp ****                 char c = IO::outputBuffer.getc();
 233              		.loc 1 37 49
 234 0140 93F70702 		andi	a5,a5,32
GAS LISTING /tmp/ccVwpxMU.s 			page 8


 235 0144 E39607FC 		bnez	a5,.L15
 236              	.L9:
 237              	.LBE33:
 238              	.LBE35:
  35:src/_thread.cpp ****         if(IO::outputBuffer.getCount() > 0) {
 239              		.loc 1 35 5 is_stmt 1
  36:src/_thread.cpp ****             while (*((char *) CONSOLE_STATUS) & CONSOLE_TX_STATUS_BIT) {
 240              		.loc 1 36 9
 241              	.LVL19:
 242              	.LBB36:
 243              	.LBB34:
 244              	.LBB30:
 245              		.loc 3 14 23
 246              		.loc 3 14 30 is_stmt 0
 247 0148 97070000 		la	a5,_ZN2IO12outputBufferE
 247      83B70700 
 248 0150 83B78711 		ld	a5,280(a5)
 249              	.LVL20:
 250              	.LBE30:
 251              	.LBE34:
  36:src/_thread.cpp ****             while (*((char *) CONSOLE_STATUS) & CONSOLE_TX_STATUS_BIT) {
 252              		.loc 1 36 9
 253 0154 E38A07FE 		beqz	a5,.L9
 254 0158 6FF09FFD 		j	.L11
 255              	.LBE36:
 256              		.cfi_endproc
 257              	.LFE57:
 259              		.align	2
 260              		.globl	_ZN7_threadC2EPFvPvES0_m
 262              	_ZN7_threadC2EPFvPvES0_m:
 263              	.LFB59:
  40:src/_thread.cpp ****             }
  41:src/_thread.cpp ****         }
  42:src/_thread.cpp ****     }
  43:src/_thread.cpp **** }
  44:src/_thread.cpp **** 
  45:src/_thread.cpp **** _thread::_thread(_thread::Func body, void *args, uint64 mra) : body(body), context({0, 0}),args(arg
 264              		.loc 1 45 1 is_stmt 1
 265              		.cfi_startproc
 266              	.LVL21:
 267 015c 130101FE 		addi	sp,sp,-32
 268              		.cfi_def_cfa_offset 32
 269 0160 233C1100 		sd	ra,24(sp)
 270 0164 23388100 		sd	s0,16(sp)
 271 0168 23349100 		sd	s1,8(sp)
 272 016c 23302101 		sd	s2,0(sp)
 273              		.cfi_offset 1, -8
 274              		.cfi_offset 8, -16
 275              		.cfi_offset 9, -24
 276              		.cfi_offset 18, -32
 277 0170 13040102 		addi	s0,sp,32
 278              		.cfi_def_cfa 8, 0
 279 0174 93040500 		mv	s1,a0
 280 0178 13890500 		mv	s2,a1
 281              	.LBB37:
  46:src/_thread.cpp ****                                                    timedWait(false), isAdmin(false), timeSlice(DEFA
 282              		.loc 1 46 178 is_stmt 0
GAS LISTING /tmp/ccVwpxMU.s 			page 9


 283 017c 2330B500 		sd	a1,0(a0)
 284 0180 23340500 		sd	zero,8(a0)
 285 0184 23380500 		sd	zero,16(a0)
 286 0188 233CC500 		sd	a2,24(a0)
 287 018c 23000502 		sb	zero,32(a0)
 288 0190 A3000502 		sb	zero,33(a0)
 289 0194 23010502 		sb	zero,34(a0)
 290 0198 A3010502 		sb	zero,35(a0)
 291 019c 23020502 		sb	zero,36(a0)
 292 01a0 93072000 		li	a5,2
 293 01a4 2334F502 		sd	a5,40(a0)
 294              		.loc 1 46 158
 295 01a8 37150000 		li	a0,4096
 296              	.LVL22:
 297 01ac 97000000 		call	_ZN15MemoryAllocator9mem_allocEm@plt
 297      E7800000 
 298              	.LVL23:
 299              		.loc 1 46 178
 300 01b4 23B8A402 		sd	a0,48(s1)
 301 01b8 23BC0402 		sd	zero,56(s1)
 302              	.LBB38:
  47:src/_thread.cpp ****     uint64 ra = body != (Func)main ? (uint64)wrapper : 0;
 303              		.loc 1 47 5 is_stmt 1
 304              		.loc 1 47 36 is_stmt 0
 305 01bc 97070000 		la	a5,main
 305      83B70700 
 306 01c4 630CF904 		beq	s2,a5,.L20
 307              		.loc 1 47 36 discriminator 1
 308 01c8 97070000 		lla	a5,_ZN7_thread7wrapperEv
 308      93870700 
 309              	.L17:
 310              	.LVL24:
  48:src/_thread.cpp ****     uint64 sp = body != (Func)main ? (uint64)((char *)stack + DEFAULT_STACK_SIZE) : 0;
 311              		.loc 1 48 5 is_stmt 1 discriminator 4
 312              		.loc 1 48 36 is_stmt 0 discriminator 4
 313 01d0 17070000 		la	a4,main
 313      03370700 
 314 01d8 6306E904 		beq	s2,a4,.L21
 315              		.loc 1 48 61 discriminator 1
 316 01dc 37170000 		li	a4,4096
 317 01e0 3305E500 		add	a0,a0,a4
 318              	.L18:
 319              	.LVL25:
  49:src/_thread.cpp ****     if(RISCV::isMain) {
 320              		.loc 1 49 5 is_stmt 1 discriminator 4
 321 01e4 17070000 		la	a4,_ZN5RISCV6isMainE
 321      03370700 
 322 01ec 03470700 		lbu	a4,0(a4)
 323 01f0 63060700 		beqz	a4,.L19
  50:src/_thread.cpp ****         isAdmin = true;
 324              		.loc 1 50 9
 325              		.loc 1 50 17 is_stmt 0
 326 01f4 13071000 		li	a4,1
 327 01f8 A381E402 		sb	a4,35(s1)
 328              	.L19:
  51:src/_thread.cpp ****     }
  52:src/_thread.cpp ****     this->context.ra = ra;
GAS LISTING /tmp/ccVwpxMU.s 			page 10


 329              		.loc 1 52 5 is_stmt 1
 330              		.loc 1 52 22 is_stmt 0
 331 01fc 23B4F400 		sd	a5,8(s1)
  53:src/_thread.cpp ****     this->context.sp = sp;
 332              		.loc 1 53 5 is_stmt 1
 333              		.loc 1 53 22 is_stmt 0
 334 0200 23B8A400 		sd	a0,16(s1)
 335              	.LBE38:
 336              	.LBE37:
  54:src/_thread.cpp **** }
 337              		.loc 1 54 1
 338 0204 83308101 		ld	ra,24(sp)
 339              		.cfi_remember_state
 340              		.cfi_restore 1
 341 0208 03340101 		ld	s0,16(sp)
 342              		.cfi_restore 8
 343              		.cfi_def_cfa 2, 32
 344 020c 83348100 		ld	s1,8(sp)
 345              		.cfi_restore 9
 346              	.LVL26:
 347 0210 03390100 		ld	s2,0(sp)
 348              		.cfi_restore 18
 349              	.LVL27:
 350 0214 13010102 		addi	sp,sp,32
 351              		.cfi_def_cfa_offset 0
 352 0218 67800000 		jr	ra
 353              	.LVL28:
 354              	.L20:
 355              		.cfi_restore_state
 356              	.LBB40:
 357              	.LBB39:
  47:src/_thread.cpp ****     uint64 sp = body != (Func)main ? (uint64)((char *)stack + DEFAULT_STACK_SIZE) : 0;
 358              		.loc 1 47 36
 359 021c 93070000 		li	a5,0
 360 0220 6FF01FFB 		j	.L17
 361              	.LVL29:
 362              	.L21:
  48:src/_thread.cpp ****     if(RISCV::isMain) {
 363              		.loc 1 48 36
 364 0224 13050000 		li	a0,0
 365 0228 6FF0DFFB 		j	.L18
 366              	.LBE39:
 367              	.LBE40:
 368              		.cfi_endproc
 369              	.LFE59:
 371              		.globl	_ZN7_threadC1EPFvPvES0_m
 372              		.set	_ZN7_threadC1EPFvPvES0_m,_ZN7_threadC2EPFvPvES0_m
 373              		.align	2
 374              		.globl	_ZN7_thread12createThreadEPFvPvES0_m
 376              	_ZN7_thread12createThreadEPFvPvES0_m:
 377              	.LFB55:
  23:src/_thread.cpp ****     _thread* newThread = new _thread(func, args, mra);
 378              		.loc 1 23 76 is_stmt 1
 379              		.cfi_startproc
 380              		.cfi_personality 0x9b,DW.ref.__gxx_personality_v0
 381              		.cfi_lsda 0x1b,.LLSDA55
 382              	.LVL30:
GAS LISTING /tmp/ccVwpxMU.s 			page 11


 383 022c 130101FD 		addi	sp,sp,-48
 384              		.cfi_def_cfa_offset 48
 385 0230 23341102 		sd	ra,40(sp)
 386 0234 23308102 		sd	s0,32(sp)
 387 0238 233C9100 		sd	s1,24(sp)
 388 023c 23382101 		sd	s2,16(sp)
 389 0240 23343101 		sd	s3,8(sp)
 390 0244 23304101 		sd	s4,0(sp)
 391              		.cfi_offset 1, -8
 392              		.cfi_offset 8, -16
 393              		.cfi_offset 9, -24
 394              		.cfi_offset 18, -32
 395              		.cfi_offset 19, -40
 396              		.cfi_offset 20, -48
 397 0248 13040103 		addi	s0,sp,48
 398              		.cfi_def_cfa 8, 0
 399 024c 13090500 		mv	s2,a0
 400 0250 93890500 		mv	s3,a1
 401 0254 130A0600 		mv	s4,a2
  24:src/_thread.cpp ****     return newThread;
 402              		.loc 1 24 5
 403              	.LVL31:
 404              	.LBB41:
 405              	.LBB42:
  62:src/../h/_thread.hpp ****     }
 406              		.loc 2 62 9
  62:src/../h/_thread.hpp ****     }
 407              		.loc 2 62 42 is_stmt 0
 408 0258 13050004 		li	a0,64
 409              	.LVL32:
 410              	.LEHB0:
 411 025c 97000000 		call	_ZN15MemoryAllocator9mem_allocEm@plt
 411      E7800000 
 412              	.LVL33:
 413              	.LEHE0:
 414 0264 93040500 		mv	s1,a0
 415              	.LVL34:
 416              	.LBE42:
 417              	.LBE41:
  24:src/_thread.cpp ****     return newThread;
 418              		.loc 1 24 53
 419 0268 93060A00 		mv	a3,s4
 420 026c 13860900 		mv	a2,s3
 421 0270 93050900 		mv	a1,s2
 422              	.LEHB1:
 423 0274 97000000 		call	_ZN7_threadC1EPFvPvES0_m
 423      E7800000 
 424              	.LVL35:
 425              	.LEHE1:
 426 027c 6F000002 		j	.L28
 427              	.L25:
 428 0280 13090500 		mv	s2,a0
 429              	.LVL36:
 430              	.LBB43:
 431              	.LBB44:
  67:src/../h/_thread.hpp ****     }
 432              		.loc 2 67 9 is_stmt 1
GAS LISTING /tmp/ccVwpxMU.s 			page 12


  67:src/../h/_thread.hpp ****     }
 433              		.loc 2 67 34 is_stmt 0
 434 0284 13850400 		mv	a0,s1
 435 0288 97000000 		call	_ZN15MemoryAllocator8mem_freeEPv@plt
 435      E7800000 
 436              	.LVL37:
 437 0290 13050900 		mv	a0,s2
 438              	.LEHB2:
 439 0294 97000000 		call	_Unwind_Resume@plt
 439      E7800000 
 440              	.LVL38:
 441              	.LEHE2:
 442              	.L28:
 443              	.LBE44:
 444              	.LBE43:
  26:src/_thread.cpp **** 
 445              		.loc 1 26 1
 446 029c 13850400 		mv	a0,s1
 447 02a0 83308102 		ld	ra,40(sp)
 448              		.cfi_restore 1
 449 02a4 03340102 		ld	s0,32(sp)
 450              		.cfi_restore 8
 451              		.cfi_def_cfa 2, 48
 452 02a8 83348101 		ld	s1,24(sp)
 453              		.cfi_restore 9
 454 02ac 03390101 		ld	s2,16(sp)
 455              		.cfi_restore 18
 456              	.LVL39:
 457 02b0 83398100 		ld	s3,8(sp)
 458              		.cfi_restore 19
 459              	.LVL40:
 460 02b4 033A0100 		ld	s4,0(sp)
 461              		.cfi_restore 20
 462              	.LVL41:
 463 02b8 13010103 		addi	sp,sp,48
 464              		.cfi_def_cfa_offset 0
 465 02bc 67800000 		jr	ra
 466              		.cfi_endproc
 467              	.LFE55:
 468              		.globl	__gxx_personality_v0
 469              		.section	.gcc_except_table,"a",@progbits
 470              	.LLSDA55:
 471 0000 FF       		.byte	0xff
 472 0001 FF       		.byte	0xff
 473 0002 03       		.byte	0x3
 474 0003 27       		.byte	0x27
 475 0004 00000000 		.4byte	.LEHB0-.LFB55
 476 0008 00000000 		.4byte	.LEHE0-.LEHB0
 477 000c 00000000 		.4byte	0
 478 0010 00       		.byte	0
 479 0011 00000000 		.4byte	.LEHB1-.LFB55
 480 0015 00000000 		.4byte	.LEHE1-.LEHB1
 481 0019 00000000 		.4byte	.L25-.LFB55
 482 001d 00       		.byte	0
 483 001e 00000000 		.4byte	.LEHB2-.LFB55
 484 0022 00000000 		.4byte	.LEHE2-.LEHB2
 485 0026 00000000 		.4byte	0
GAS LISTING /tmp/ccVwpxMU.s 			page 13


 486 002a 00       		.byte	0
 487              		.text
 489              		.globl	_ZN7_thread16runningTimeSliceE
 490              		.globl	_ZN7_thread7runningE
 491              		.bss
 492              		.align	3
 493              		.set	.LANCHOR0,. + 0
 496              	_ZN7_thread7runningE:
 497 0000 00000000 		.zero	8
 497      00000000 
 500              	_ZN7_thread16runningTimeSliceE:
 501 0008 00000000 		.zero	8
 501      00000000 
 502              		.text
 503              	.Letext0:
 504              		.file 4 "src/../h/../lib/hw.h"
 505              		.file 5 "src/../h/syscall_c.h"
 506              		.file 6 "src/../h/_sem.hpp"
 507              		.file 7 "src/../h/MemAlloc.hpp"
 508              		.file 8 "src/../h/ThreadList.hpp"
 509              		.file 9 "src/../h/Scheduler.hpp"
 4052              		.align	3
 4055              	DW.ref.__gxx_personality_v0:
 4056 0000 00000000 		.dword	__gxx_personality_v0
 4056      00000000 
 4057              		.ident	"GCC: (Ubuntu 9.4.0-1ubuntu1~20.04) 9.4.0"
 4058              		.section	.note.GNU-stack,"",@progbits
GAS LISTING /tmp/ccVwpxMU.s 			page 14


DEFINED SYMBOLS
                            *ABS*:0000000000000000 _thread.cpp
     /tmp/ccVwpxMU.s:9      .text:0000000000000000 _ZN7_thread7wrapperEv
     /tmp/ccVwpxMU.s:13     .text:0000000000000000 .L0 
     /tmp/ccVwpxMU.s:14     .text:0000000000000000 .L0 
     /tmp/ccVwpxMU.s:15     .text:0000000000000004 .L0 
     /tmp/ccVwpxMU.s:19     .text:0000000000000010 .L0 
     /tmp/ccVwpxMU.s:20     .text:0000000000000010 .L0 
     /tmp/ccVwpxMU.s:21     .text:0000000000000010 .L0 
     /tmp/ccVwpxMU.s:23     .text:0000000000000014 .L0 
     /tmp/ccVwpxMU.s:25     .text:0000000000000014 .L0 
     /tmp/ccVwpxMU.s:26     .text:0000000000000014 .L0 
     /tmp/ccVwpxMU.s:30     .text:0000000000000024 .L0 
     /tmp/ccVwpxMU.s:34     .text:000000000000002c .L0 
     /tmp/ccVwpxMU.s:35     .text:000000000000002c .L0 
     /tmp/ccVwpxMU.s:41     .text:0000000000000030 .L0 
     /tmp/ccVwpxMU.s:42     .text:0000000000000030 .L0 
     /tmp/ccVwpxMU.s:48     .text:0000000000000038 .L0 
     /tmp/ccVwpxMU.s:49     .text:0000000000000038 .L0 
     /tmp/ccVwpxMU.s:52     .text:0000000000000040 .L0 
     /tmp/ccVwpxMU.s:53     .text:0000000000000044 .L0 
     /tmp/ccVwpxMU.s:55     .text:0000000000000048 .L0 
     /tmp/ccVwpxMU.s:56     .text:0000000000000048 .L0 
     /tmp/ccVwpxMU.s:58     .text:000000000000004c .L0 
     /tmp/ccVwpxMU.s:60     .text:0000000000000050 .L0 
     /tmp/ccVwpxMU.s:62     .text:0000000000000054 .L0 
     /tmp/ccVwpxMU.s:68     .text:0000000000000054 _ZN7_thread8dispatchEv
     /tmp/ccVwpxMU.s:71     .text:0000000000000054 .L0 
     /tmp/ccVwpxMU.s:72     .text:0000000000000054 .L0 
     /tmp/ccVwpxMU.s:73     .text:0000000000000058 .L0 
     /tmp/ccVwpxMU.s:77     .text:0000000000000064 .L0 
     /tmp/ccVwpxMU.s:78     .text:0000000000000064 .L0 
     /tmp/ccVwpxMU.s:79     .text:0000000000000064 .L0 
     /tmp/ccVwpxMU.s:81     .text:0000000000000068 .L0 
     /tmp/ccVwpxMU.s:83     .text:0000000000000068 .L0 
     /tmp/ccVwpxMU.s:84     .text:0000000000000068 .L0 
     /tmp/ccVwpxMU.s:89     .text:0000000000000070 .L0 
     /tmp/ccVwpxMU.s:90     .text:0000000000000070 .L0 
     /tmp/ccVwpxMU.s:91     .text:0000000000000070 .L0 
     /tmp/ccVwpxMU.s:96     .text:0000000000000074 .L0 
     /tmp/ccVwpxMU.s:101    .text:0000000000000078 .L0 
     /tmp/ccVwpxMU.s:102    .text:0000000000000078 .L0 
     /tmp/ccVwpxMU.s:107    .text:000000000000007c .L0 
     /tmp/ccVwpxMU.s:112    .text:0000000000000080 .L0 
     /tmp/ccVwpxMU.s:113    .text:0000000000000080 .L0 
     /tmp/ccVwpxMU.s:118    .text:0000000000000084 .L0 
     /tmp/ccVwpxMU.s:121    .text:0000000000000088 .L0 
     /tmp/ccVwpxMU.s:122    .text:0000000000000088 .L0 
     /tmp/ccVwpxMU.s:125    .text:0000000000000090 .L0 
     /tmp/ccVwpxMU.s:126    .text:0000000000000090 .L0 
     /tmp/ccVwpxMU.s:129    .text:000000000000009c .L0 
     /tmp/ccVwpxMU.s:130    .text:000000000000009c .L0 
     /tmp/ccVwpxMU.s:132    .text:00000000000000a0 .L0 
     /tmp/ccVwpxMU.s:134    .text:00000000000000a4 .L0 
     /tmp/ccVwpxMU.s:135    .text:00000000000000a4 .L0 
     /tmp/ccVwpxMU.s:142    .text:00000000000000b4 .L0 
     /tmp/ccVwpxMU.s:143    .text:00000000000000b8 .L0 
GAS LISTING /tmp/ccVwpxMU.s 			page 15


     /tmp/ccVwpxMU.s:144    .text:00000000000000b8 .L0 
     /tmp/ccVwpxMU.s:146    .text:00000000000000bc .L0 
     /tmp/ccVwpxMU.s:147    .text:00000000000000bc .L0 
     /tmp/ccVwpxMU.s:149    .text:00000000000000c0 .L0 
     /tmp/ccVwpxMU.s:152    .text:00000000000000c4 .L0 
     /tmp/ccVwpxMU.s:156    .text:00000000000000c8 .L0 
     /tmp/ccVwpxMU.s:158    .text:00000000000000c8 .L0 
     /tmp/ccVwpxMU.s:159    .text:00000000000000c8 .L0 
     /tmp/ccVwpxMU.s:163    .text:00000000000000d8 .L0 
     /tmp/ccVwpxMU.s:169    .text:00000000000000d8 _ZN7_thread12outputThreadEPv
     /tmp/ccVwpxMU.s:172    .text:00000000000000d8 .L0 
     /tmp/ccVwpxMU.s:174    .text:00000000000000d8 .L0 
     /tmp/ccVwpxMU.s:175    .text:00000000000000d8 .L0 
     /tmp/ccVwpxMU.s:181    .text:00000000000000d8 .L0 
     /tmp/ccVwpxMU.s:182    .text:00000000000000d8 .L0 
     /tmp/ccVwpxMU.s:183    .text:00000000000000d8 .L0 
     /tmp/ccVwpxMU.s:189    .text:00000000000000e4 .L0 
     /tmp/ccVwpxMU.s:192    .text:00000000000000e8 .L0 
     /tmp/ccVwpxMU.s:193    .text:00000000000000e8 .L0 
     /tmp/ccVwpxMU.s:194    .text:00000000000000e8 .L0 
     /tmp/ccVwpxMU.s:198    .text:00000000000000f8 .L0 
     /tmp/ccVwpxMU.s:203    .text:0000000000000100 .L0 
     /tmp/ccVwpxMU.s:204    .text:0000000000000104 .L0 
     /tmp/ccVwpxMU.s:207    .text:000000000000010c .L0 
     /tmp/ccVwpxMU.s:208    .text:000000000000010c .L0 
     /tmp/ccVwpxMU.s:210    .text:0000000000000110 .L0 
     /tmp/ccVwpxMU.s:216    .text:0000000000000110 .L0 
     /tmp/ccVwpxMU.s:217    .text:0000000000000110 .L0 
     /tmp/ccVwpxMU.s:221    .text:0000000000000120 .L0 
     /tmp/ccVwpxMU.s:224    .text:000000000000012c .L0 
     /tmp/ccVwpxMU.s:228    .text:0000000000000130 .L0 
     /tmp/ccVwpxMU.s:229    .text:0000000000000130 .L0 
     /tmp/ccVwpxMU.s:230    .text:0000000000000130 .L0 
     /tmp/ccVwpxMU.s:234    .text:0000000000000140 .L0 
     /tmp/ccVwpxMU.s:240    .text:0000000000000148 .L0 
     /tmp/ccVwpxMU.s:245    .text:0000000000000148 .L0 
     /tmp/ccVwpxMU.s:246    .text:0000000000000148 .L0 
     /tmp/ccVwpxMU.s:247    .text:0000000000000148 .L0 
     /tmp/ccVwpxMU.s:253    .text:0000000000000154 .L0 
     /tmp/ccVwpxMU.s:256    .text:000000000000015c .L0 
     /tmp/ccVwpxMU.s:262    .text:000000000000015c _ZN7_threadC2EPFvPvES0_m
     /tmp/ccVwpxMU.s:265    .text:000000000000015c .L0 
     /tmp/ccVwpxMU.s:267    .text:000000000000015c .L0 
     /tmp/ccVwpxMU.s:268    .text:0000000000000160 .L0 
     /tmp/ccVwpxMU.s:273    .text:0000000000000170 .L0 
     /tmp/ccVwpxMU.s:274    .text:0000000000000170 .L0 
     /tmp/ccVwpxMU.s:275    .text:0000000000000170 .L0 
     /tmp/ccVwpxMU.s:276    .text:0000000000000170 .L0 
     /tmp/ccVwpxMU.s:278    .text:0000000000000174 .L0 
     /tmp/ccVwpxMU.s:283    .text:000000000000017c .L0 
     /tmp/ccVwpxMU.s:295    .text:00000000000001a8 .L0 
     /tmp/ccVwpxMU.s:300    .text:00000000000001b4 .L0 
     /tmp/ccVwpxMU.s:304    .text:00000000000001bc .L0 
     /tmp/ccVwpxMU.s:305    .text:00000000000001bc .L0 
     /tmp/ccVwpxMU.s:308    .text:00000000000001c8 .L0 
     /tmp/ccVwpxMU.s:312    .text:00000000000001d0 .L0 
     /tmp/ccVwpxMU.s:313    .text:00000000000001d0 .L0 
GAS LISTING /tmp/ccVwpxMU.s 			page 16


     /tmp/ccVwpxMU.s:316    .text:00000000000001dc .L0 
     /tmp/ccVwpxMU.s:321    .text:00000000000001e4 .L0 
     /tmp/ccVwpxMU.s:325    .text:00000000000001f4 .L0 
     /tmp/ccVwpxMU.s:326    .text:00000000000001f4 .L0 
     /tmp/ccVwpxMU.s:330    .text:00000000000001fc .L0 
     /tmp/ccVwpxMU.s:331    .text:00000000000001fc .L0 
     /tmp/ccVwpxMU.s:333    .text:0000000000000200 .L0 
     /tmp/ccVwpxMU.s:334    .text:0000000000000200 .L0 
     /tmp/ccVwpxMU.s:338    .text:0000000000000204 .L0 
     /tmp/ccVwpxMU.s:339    .text:0000000000000208 .L0 
     /tmp/ccVwpxMU.s:340    .text:0000000000000208 .L0 
     /tmp/ccVwpxMU.s:342    .text:000000000000020c .L0 
     /tmp/ccVwpxMU.s:343    .text:000000000000020c .L0 
     /tmp/ccVwpxMU.s:345    .text:0000000000000210 .L0 
     /tmp/ccVwpxMU.s:348    .text:0000000000000214 .L0 
     /tmp/ccVwpxMU.s:351    .text:0000000000000218 .L0 
     /tmp/ccVwpxMU.s:355    .text:000000000000021c .L0 
     /tmp/ccVwpxMU.s:359    .text:000000000000021c .L0 
     /tmp/ccVwpxMU.s:364    .text:0000000000000224 .L0 
     /tmp/ccVwpxMU.s:368    .text:000000000000022c .L0 
     /tmp/ccVwpxMU.s:262    .text:000000000000015c _ZN7_threadC1EPFvPvES0_m
     /tmp/ccVwpxMU.s:376    .text:000000000000022c _ZN7_thread12createThreadEPFvPvES0_m
     /tmp/ccVwpxMU.s:379    .text:000000000000022c .L0 
     /tmp/ccVwpxMU.s:4055   .data.rel.local.DW.ref.__gxx_personality_v0:0000000000000000 DW.ref.__gxx_personality_v0
     /tmp/ccVwpxMU.s:383    .text:000000000000022c .L0 
     /tmp/ccVwpxMU.s:384    .text:0000000000000230 .L0 
     /tmp/ccVwpxMU.s:391    .text:0000000000000248 .L0 
     /tmp/ccVwpxMU.s:392    .text:0000000000000248 .L0 
     /tmp/ccVwpxMU.s:393    .text:0000000000000248 .L0 
     /tmp/ccVwpxMU.s:394    .text:0000000000000248 .L0 
     /tmp/ccVwpxMU.s:395    .text:0000000000000248 .L0 
     /tmp/ccVwpxMU.s:396    .text:0000000000000248 .L0 
     /tmp/ccVwpxMU.s:398    .text:000000000000024c .L0 
     /tmp/ccVwpxMU.s:406    .text:0000000000000258 .L0 
     /tmp/ccVwpxMU.s:407    .text:0000000000000258 .L0 
     /tmp/ccVwpxMU.s:408    .text:0000000000000258 .L0 
     /tmp/ccVwpxMU.s:419    .text:0000000000000268 .L0 
     /tmp/ccVwpxMU.s:433    .text:0000000000000284 .L0 
     /tmp/ccVwpxMU.s:434    .text:0000000000000284 .L0 
     /tmp/ccVwpxMU.s:446    .text:000000000000029c .L0 
     /tmp/ccVwpxMU.s:448    .text:00000000000002a4 .L0 
     /tmp/ccVwpxMU.s:450    .text:00000000000002a8 .L0 
     /tmp/ccVwpxMU.s:451    .text:00000000000002a8 .L0 
     /tmp/ccVwpxMU.s:453    .text:00000000000002ac .L0 
     /tmp/ccVwpxMU.s:455    .text:00000000000002b0 .L0 
     /tmp/ccVwpxMU.s:458    .text:00000000000002b4 .L0 
     /tmp/ccVwpxMU.s:461    .text:00000000000002b8 .L0 
     /tmp/ccVwpxMU.s:464    .text:00000000000002bc .L0 
     /tmp/ccVwpxMU.s:466    .text:00000000000002c0 .L0 
     /tmp/ccVwpxMU.s:500    .bss:0000000000000008 _ZN7_thread16runningTimeSliceE
     /tmp/ccVwpxMU.s:496    .bss:0000000000000000 _ZN7_thread7runningE
     /tmp/ccVwpxMU.s:493    .bss:0000000000000000 .LANCHOR0
     /tmp/ccVwpxMU.s:510    .text:00000000000002c0 .L0 
     /tmp/ccVwpxMU.s:26     .text:0000000000000014 .L0 
     /tmp/ccVwpxMU.s:84     .text:0000000000000068 .L0 
     /tmp/ccVwpxMU.s:126    .text:0000000000000090 .L0 
     /tmp/ccVwpxMU.s:183    .text:00000000000000d8 .L0 
GAS LISTING /tmp/ccVwpxMU.s 			page 17


     /tmp/ccVwpxMU.s:194    .text:00000000000000e8 .L0 
     /tmp/ccVwpxMU.s:217    .text:0000000000000110 .L0 
     /tmp/ccVwpxMU.s:221    .text:0000000000000120 .L0 
     /tmp/ccVwpxMU.s:230    .text:0000000000000130 .L0 
     /tmp/ccVwpxMU.s:247    .text:0000000000000148 .L0 
     /tmp/ccVwpxMU.s:305    .text:00000000000001bc .L0 
     /tmp/ccVwpxMU.s:308    .text:00000000000001c8 .L0 
     /tmp/ccVwpxMU.s:313    .text:00000000000001d0 .L0 
     /tmp/ccVwpxMU.s:321    .text:00000000000001e4 .L0 
     /tmp/ccVwpxMU.s:119    .text:0000000000000088 .L4
     /tmp/ccVwpxMU.s:155    .text:00000000000000c8 .L7
     /tmp/ccVwpxMU.s:140    .text:00000000000000b4 .L3
     /tmp/ccVwpxMU.s:173    .text:00000000000000d8 .L14
     /tmp/ccVwpxMU.s:211    .text:0000000000000110 .L15
     /tmp/ccVwpxMU.s:236    .text:0000000000000148 .L9
     /tmp/ccVwpxMU.s:225    .text:0000000000000130 .L11
     /tmp/ccVwpxMU.s:354    .text:000000000000021c .L20
     /tmp/ccVwpxMU.s:362    .text:0000000000000224 .L21
     /tmp/ccVwpxMU.s:328    .text:00000000000001fc .L19
     /tmp/ccVwpxMU.s:309    .text:00000000000001d0 .L17
     /tmp/ccVwpxMU.s:318    .text:00000000000001e4 .L18
     /tmp/ccVwpxMU.s:442    .text:000000000000029c .L28
     /tmp/ccVwpxMU.s:410    .text:000000000000025c .LEHB0
     /tmp/ccVwpxMU.s:377    .text:000000000000022c .LFB55
     /tmp/ccVwpxMU.s:413    .text:0000000000000264 .LEHE0
     /tmp/ccVwpxMU.s:422    .text:0000000000000274 .LEHB1
     /tmp/ccVwpxMU.s:425    .text:000000000000027c .LEHE1
     /tmp/ccVwpxMU.s:427    .text:0000000000000280 .L25
     /tmp/ccVwpxMU.s:438    .text:0000000000000294 .LEHB2
     /tmp/ccVwpxMU.s:441    .text:000000000000029c .LEHE2
     /tmp/ccVwpxMU.s:2155   .debug_abbrev:0000000000000000 .Ldebug_abbrev0
     /tmp/ccVwpxMU.s:3985   .debug_str:00000000000007d0 .LASF144
     /tmp/ccVwpxMU.s:3769   .debug_str:0000000000000155 .LASF145
     /tmp/ccVwpxMU.s:3901   .debug_str:0000000000000551 .LASF146
     /tmp/ccVwpxMU.s:5      .text:0000000000000000 .Ltext0
     /tmp/ccVwpxMU.s:503    .text:00000000000002c0 .Letext0
     /tmp/ccVwpxMU.s:3727   .debug_line:0000000000000000 .Ldebug_line0
     /tmp/ccVwpxMU.s:3829   .debug_str:00000000000002cb .LASF0
     /tmp/ccVwpxMU.s:3845   .debug_str:0000000000000345 .LASF1
     /tmp/ccVwpxMU.s:3921   .debug_str:0000000000000614 .LASF2
     /tmp/ccVwpxMU.s:3929   .debug_str:000000000000065b .LASF4
     /tmp/ccVwpxMU.s:3833   .debug_str:00000000000002dd .LASF3
     /tmp/ccVwpxMU.s:3737   .debug_str:0000000000000036 .LASF5
     /tmp/ccVwpxMU.s:3911   .debug_str:00000000000005c2 .LASF6
     /tmp/ccVwpxMU.s:3903   .debug_str:0000000000000571 .LASF7
     /tmp/ccVwpxMU.s:3839   .debug_str:000000000000031d .LASF8
     /tmp/ccVwpxMU.s:3809   .debug_str:0000000000000247 .LASF9
     /tmp/ccVwpxMU.s:3813   .debug_str:000000000000026f .LASF10
     /tmp/ccVwpxMU.s:3797   .debug_str:00000000000001fb .LASF11
     /tmp/ccVwpxMU.s:3803   .debug_str:0000000000000229 .LASF12
     /tmp/ccVwpxMU.s:3777   .debug_str:0000000000000175 .LASF13
     /tmp/ccVwpxMU.s:3767   .debug_str:0000000000000145 .LASF14
     /tmp/ccVwpxMU.s:3963   .debug_str:0000000000000772 .LASF15
     /tmp/ccVwpxMU.s:3793   .debug_str:00000000000001dd .LASF16
     /tmp/ccVwpxMU.s:3949   .debug_str:0000000000000718 .LASF17
     /tmp/ccVwpxMU.s:3745   .debug_str:0000000000000071 .LASF39
     /tmp/ccVwpxMU.s:3973   .debug_str:00000000000007a0 .LASF147
GAS LISTING /tmp/ccVwpxMU.s 			page 18


     /tmp/ccVwpxMU.s:3815   .debug_str:000000000000027d .LASF148
     /tmp/ccVwpxMU.s:3733   .debug_str:0000000000000021 .LASF18
     /tmp/ccVwpxMU.s:4001   .debug_str:00000000000008e0 .LASF19
     /tmp/ccVwpxMU.s:4039   .debug_str:0000000000000a08 .LASF20
     /tmp/ccVwpxMU.s:3891   .debug_str:0000000000000508 .LASF21
     /tmp/ccVwpxMU.s:3947   .debug_str:000000000000070f .LASF22
     /tmp/ccVwpxMU.s:3743   .debug_str:0000000000000067 .LASF23
     /tmp/ccVwpxMU.s:3967   .debug_str:0000000000000787 .LASF24
     /tmp/ccVwpxMU.s:3859   .debug_str:00000000000003f9 .LASF25
     /tmp/ccVwpxMU.s:3993   .debug_str:00000000000008b5 .LASF26
     /tmp/ccVwpxMU.s:3945   .debug_str:0000000000000709 .LASF27
     /tmp/ccVwpxMU.s:3775   .debug_str:000000000000016f .LASF28
     /tmp/ccVwpxMU.s:3909   .debug_str:00000000000005b5 .LASF43
     /tmp/ccVwpxMU.s:4029   .debug_str:00000000000009b1 .LASF45
     /tmp/ccVwpxMU.s:4013   .debug_str:0000000000000934 .LASF47
     /tmp/ccVwpxMU.s:4021   .debug_str:0000000000000971 .LASF49
     /tmp/ccVwpxMU.s:3983   .debug_str:00000000000007c8 .LASF29
     /tmp/ccVwpxMU.s:3761   .debug_str:0000000000000113 .LASF30
     /tmp/ccVwpxMU.s:3885   .debug_str:00000000000004ce .LASF41
     /tmp/ccVwpxMU.s:3923   .debug_str:0000000000000622 .LASF31
     /tmp/ccVwpxMU.s:3931   .debug_str:0000000000000662 .LASF33
     /tmp/ccVwpxMU.s:3763   .debug_str:0000000000000124 .LASF32
     /tmp/ccVwpxMU.s:4017   .debug_str:0000000000000943 .LASF34
     /tmp/ccVwpxMU.s:3975   .debug_str:00000000000007a8 .LASF35
     /tmp/ccVwpxMU.s:3779   .debug_str:0000000000000185 .LASF36
     /tmp/ccVwpxMU.s:3879   .debug_str:00000000000004a0 .LASF37
     /tmp/ccVwpxMU.s:4005   .debug_str:00000000000008f8 .LASF38
     /tmp/ccVwpxMU.s:3961   .debug_str:0000000000000765 .LASF40
     /tmp/ccVwpxMU.s:3875   .debug_str:0000000000000474 .LASF42
     /tmp/ccVwpxMU.s:3817   .debug_str:0000000000000282 .LASF44
     /tmp/ccVwpxMU.s:3853   .debug_str:0000000000000396 .LASF46
     /tmp/ccVwpxMU.s:3785   .debug_str:00000000000001c0 .LASF48
     /tmp/ccVwpxMU.s:3781   .debug_str:000000000000019f .LASF50
     /tmp/ccVwpxMU.s:4045   .debug_str:0000000000000a40 .LASF51
     /tmp/ccVwpxMU.s:3919   .debug_str:0000000000000604 .LASF52
     /tmp/ccVwpxMU.s:3735   .debug_str:0000000000000026 .LASF53
     /tmp/ccVwpxMU.s:3987   .debug_str:0000000000000894 .LASF54
     /tmp/ccVwpxMU.s:3977   .debug_str:00000000000007b3 .LASF55
     /tmp/ccVwpxMU.s:3925   .debug_str:000000000000062c .LASF56
     /tmp/ccVwpxMU.s:3863   .debug_str:000000000000041d .LASF57
     /tmp/ccVwpxMU.s:3749   .debug_str:0000000000000092 .LASF58
     /tmp/ccVwpxMU.s:3995   .debug_str:00000000000008bf .LASF59
     /tmp/ccVwpxMU.s:3915   .debug_str:00000000000005e3 .LASF60
     /tmp/ccVwpxMU.s:3755   .debug_str:00000000000000f2 .LASF61
     /tmp/ccVwpxMU.s:4023   .debug_str:0000000000000987 .LASF62
     /tmp/ccVwpxMU.s:3965   .debug_str:000000000000077e .LASF63
     /tmp/ccVwpxMU.s:3841   .debug_str:0000000000000330 .LASF64
     /tmp/ccVwpxMU.s:4027   .debug_str:00000000000009ab .LASF65
     /tmp/ccVwpxMU.s:3959   .debug_str:0000000000000760 .LASF66
     /tmp/ccVwpxMU.s:3823   .debug_str:00000000000002b6 .LASF67
     /tmp/ccVwpxMU.s:3895   .debug_str:0000000000000524 .LASF68
     /tmp/ccVwpxMU.s:3827   .debug_str:00000000000002c5 .LASF69
     /tmp/ccVwpxMU.s:3799   .debug_str:000000000000020a .LASF70
     /tmp/ccVwpxMU.s:4037   .debug_str:0000000000000a00 .LASF71
     /tmp/ccVwpxMU.s:4019   .debug_str:000000000000095e .LASF72
     /tmp/ccVwpxMU.s:3971   .debug_str:0000000000000799 .LASF73
     /tmp/ccVwpxMU.s:3953   .debug_str:000000000000073f .LASF74
GAS LISTING /tmp/ccVwpxMU.s 			page 19


     /tmp/ccVwpxMU.s:3787   .debug_str:00000000000001c9 .LASF75
     /tmp/ccVwpxMU.s:3881   .debug_str:00000000000004ab .LASF76
     /tmp/ccVwpxMU.s:4011   .debug_str:000000000000091f .LASF77
     /tmp/ccVwpxMU.s:3821   .debug_str:00000000000002a5 .LASF78
     /tmp/ccVwpxMU.s:3753   .debug_str:00000000000000cd .LASF79
     /tmp/ccVwpxMU.s:3741   .debug_str:000000000000005e .LASF80
     /tmp/ccVwpxMU.s:3893   .debug_str:0000000000000510 .LASF81
     /tmp/ccVwpxMU.s:3757   .debug_str:00000000000000fe .LASF82
     /tmp/ccVwpxMU.s:3905   .debug_str:0000000000000584 .LASF83
     /tmp/ccVwpxMU.s:3999   .debug_str:00000000000008d6 .LASF84
     /tmp/ccVwpxMU.s:4043   .debug_str:0000000000000a29 .LASF85
     /tmp/ccVwpxMU.s:4047   .debug_str:0000000000000a4d .LASF86
     /tmp/ccVwpxMU.s:3801   .debug_str:000000000000021b .LASF87
     /tmp/ccVwpxMU.s:4003   .debug_str:00000000000008e8 .LASF88
     /tmp/ccVwpxMU.s:3941   .debug_str:00000000000006e6 .LASF89
     /tmp/ccVwpxMU.s:3935   .debug_str:0000000000000693 .LASF90
     /tmp/ccVwpxMU.s:3955   .debug_str:0000000000000751 .LASF104
     /tmp/ccVwpxMU.s:3771   .debug_str:0000000000000165 .LASF91
     /tmp/ccVwpxMU.s:3843   .debug_str:0000000000000340 .LASF92
     /tmp/ccVwpxMU.s:3899   .debug_str:0000000000000541 .LASF93
     /tmp/ccVwpxMU.s:3969   .debug_str:000000000000078f .LASF94
     /tmp/ccVwpxMU.s:3997   .debug_str:00000000000008cc .LASF95
     /tmp/ccVwpxMU.s:3871   .debug_str:0000000000000449 .LASF96
     /tmp/ccVwpxMU.s:3739   .debug_str:000000000000003d .LASF97
     /tmp/ccVwpxMU.s:3825   .debug_str:00000000000002bc .LASF98
     /tmp/ccVwpxMU.s:3873   .debug_str:0000000000000453 .LASF99
     /tmp/ccVwpxMU.s:3897   .debug_str:0000000000000531 .LASF100
     /tmp/ccVwpxMU.s:3855   .debug_str:00000000000003c2 .LASF101
     /tmp/ccVwpxMU.s:4041   .debug_str:0000000000000a0d .LASF102
     /tmp/ccVwpxMU.s:3889   .debug_str:00000000000004fd .LASF103
     /tmp/ccVwpxMU.s:4007   .debug_str:0000000000000912 .LASF105
     /tmp/ccVwpxMU.s:3831   .debug_str:00000000000002d8 .LASF106
     /tmp/ccVwpxMU.s:3939   .debug_str:00000000000006c5 .LASF107
     /tmp/ccVwpxMU.s:3943   .debug_str:00000000000006f0 .LASF108
     /tmp/ccVwpxMU.s:3759   .debug_str:0000000000000103 .LASF109
     /tmp/ccVwpxMU.s:3933   .debug_str:000000000000067a .LASF110
     /tmp/ccVwpxMU.s:3849   .debug_str:000000000000036a .LASF149
     /tmp/ccVwpxMU.s:3883   .debug_str:00000000000004bb .LASF150
     /tmp/ccVwpxMU.s:3913   .debug_str:00000000000005c9 .LASF151
     /tmp/ccVwpxMU.s:3957   .debug_str:000000000000075b .LASF111
     /tmp/ccVwpxMU.s:3857   .debug_str:00000000000003f4 .LASF112
     /tmp/ccVwpxMU.s:3795   .debug_str:00000000000001f3 .LASF113
     /tmp/ccVwpxMU.s:3937   .debug_str:00000000000006a3 .LASF114
     /tmp/ccVwpxMU.s:4009   .debug_str:0000000000000917 .LASF115
     /tmp/ccVwpxMU.s:3861   .debug_str:0000000000000403 .LASF116
     /tmp/ccVwpxMU.s:4025   .debug_str:00000000000009a2 .LASF117
     /tmp/ccVwpxMU.s:3729   .debug_str:0000000000000000 .LASF118
     /tmp/ccVwpxMU.s:3789   .debug_str:00000000000001ce .LASF119
     /tmp/ccVwpxMU.s:3907   .debug_str:0000000000000594 .LASF120
     /tmp/ccVwpxMU.s:3807   .debug_str:000000000000023d .LASF121
     /tmp/ccVwpxMU.s:3835   .debug_str:00000000000002ef .LASF152
     /tmp/ccVwpxMU.s:4035   .debug_str:00000000000009ec .LASF153
     /tmp/ccVwpxMU.s:3765   .debug_str:0000000000000130 .LASF122
     /tmp/ccVwpxMU.s:3927   .debug_str:0000000000000646 .LASF154
     /tmp/ccVwpxMU.s:3877   .debug_str:0000000000000499 .LASF123
     /tmp/ccVwpxMU.s:4015   .debug_str:000000000000093c .LASF124
     /tmp/ccVwpxMU.s:4031   .debug_str:00000000000009ce .LASF125
GAS LISTING /tmp/ccVwpxMU.s 			page 20


     /tmp/ccVwpxMU.s:3867   .debug_str:0000000000000436 .LASF126
     /tmp/ccVwpxMU.s:3847   .debug_str:0000000000000358 .LASF127
     /tmp/ccVwpxMU.s:3773   .debug_str:000000000000016a .LASF128
     /tmp/ccVwpxMU.s:3837   .debug_str:000000000000030b .LASF129
     /tmp/ccVwpxMU.s:3991   .debug_str:00000000000008ac .LASF130
     /tmp/ccVwpxMU.s:3887   .debug_str:00000000000004e7 .LASF131
     /tmp/ccVwpxMU.s:3851   .debug_str:0000000000000384 .LASF132
     /tmp/ccVwpxMU.s:3869   .debug_str:000000000000043b .LASF133
     /tmp/ccVwpxMU.s:3791   .debug_str:00000000000001d5 .LASF134
     /tmp/ccVwpxMU.s:3989   .debug_str:00000000000008a5 .LASF135
     /tmp/ccVwpxMU.s:3731   .debug_str:000000000000001b .LASF136
     /tmp/ccVwpxMU.s:3979   .debug_str:00000000000007be .LASF137
     /tmp/ccVwpxMU.s:3917   .debug_str:00000000000005ff .LASF138
     /tmp/ccVwpxMU.s:3819   .debug_str:0000000000000290 .LASF139
     /tmp/ccVwpxMU.s:3751   .debug_str:00000000000000ae .LASF140
     /tmp/ccVwpxMU.s:3805   .debug_str:0000000000000238 .LASF143
     /tmp/ccVwpxMU.s:3747   .debug_str:0000000000000079 .LASF155
     /tmp/ccVwpxMU.s:263    .text:000000000000015c .LFB59
     /tmp/ccVwpxMU.s:369    .text:000000000000022c .LFE59
     /tmp/ccVwpxMU.s:3478   .debug_loc:0000000000000000 .LLST6
     /tmp/ccVwpxMU.s:3500   .debug_loc:000000000000005f .LLST7
     /tmp/ccVwpxMU.s:3522   .debug_loc:00000000000000be .LLST8
     /tmp/ccVwpxMU.s:3536   .debug_loc:00000000000000f7 .LLST9
     /tmp/ccVwpxMU.s:3713   .debug_ranges:0000000000000000 .Ldebug_ranges0
     /tmp/ccVwpxMU.s:3550   .debug_loc:0000000000000130 .LLST10
     /tmp/ccVwpxMU.s:3561   .debug_loc:0000000000000166 .LLST11
     /tmp/ccVwpxMU.s:298    .text:00000000000001b4 .LVL23
     /tmp/ccVwpxMU.s:170    .text:00000000000000d8 .LFB57
     /tmp/ccVwpxMU.s:257    .text:000000000000015c .LFE57
     /tmp/ccVwpxMU.s:214    .text:0000000000000110 .LBB32
     /tmp/ccVwpxMU.s:226    .text:0000000000000130 .LBE32
     /tmp/ccVwpxMU.s:219    .text:0000000000000120 .LVL18
     /tmp/ccVwpxMU.s:178    .text:00000000000000d8 .LBB28
     /tmp/ccVwpxMU.s:10     .text:0000000000000000 .LFB56
     /tmp/ccVwpxMU.s:63     .text:0000000000000054 .LFE56
     /tmp/ccVwpxMU.s:37     .text:0000000000000030 .LBB19
     /tmp/ccVwpxMU.s:46     .text:0000000000000038 .LBE19
     /tmp/ccVwpxMU.s:3568   .debug_loc:0000000000000189 .LLST0
     /tmp/ccVwpxMU.s:50     .text:0000000000000040 .LVL3
     /tmp/ccVwpxMU.s:467    .text:00000000000002c0 .LFE55
     /tmp/ccVwpxMU.s:3981   .debug_str:00000000000007c3 .LASF141
     /tmp/ccVwpxMU.s:3575   .debug_loc:00000000000001ac .LLST12
     /tmp/ccVwpxMU.s:3604   .debug_loc:0000000000000221 .LLST13
     /tmp/ccVwpxMU.s:3622   .debug_loc:000000000000026d .LLST14
     /tmp/ccVwpxMU.s:3783   .debug_str:00000000000001b6 .LASF142
     /tmp/ccVwpxMU.s:404    .text:0000000000000258 .LBB41
     /tmp/ccVwpxMU.s:417    .text:0000000000000268 .LBE41
     /tmp/ccVwpxMU.s:3640   .debug_loc:00000000000002b9 .LLST15
     /tmp/ccVwpxMU.s:412    .text:0000000000000264 .LVL33
     /tmp/ccVwpxMU.s:430    .text:0000000000000284 .LBB43
     /tmp/ccVwpxMU.s:444    .text:000000000000029c .LBE43
     /tmp/ccVwpxMU.s:3649   .debug_loc:00000000000002de .LLST16
     /tmp/ccVwpxMU.s:436    .text:0000000000000290 .LVL37
     /tmp/ccVwpxMU.s:424    .text:000000000000027c .LVL35
     /tmp/ccVwpxMU.s:440    .text:000000000000029c .LVL38
     /tmp/ccVwpxMU.s:69     .text:0000000000000054 .LFB54
     /tmp/ccVwpxMU.s:164    .text:00000000000000d8 .LFE54
GAS LISTING /tmp/ccVwpxMU.s 			page 21


     /tmp/ccVwpxMU.s:3656   .debug_loc:0000000000000301 .LLST1
     /tmp/ccVwpxMU.s:3667   .debug_loc:0000000000000337 .LLST2
     /tmp/ccVwpxMU.s:87     .text:0000000000000070 .LBB21
     /tmp/ccVwpxMU.s:94     .text:0000000000000074 .LBE21
     /tmp/ccVwpxMU.s:3679   .debug_loc:0000000000000375 .LLST3
     /tmp/ccVwpxMU.s:98     .text:0000000000000078 .LBB23
     /tmp/ccVwpxMU.s:105    .text:000000000000007c .LBE23
     /tmp/ccVwpxMU.s:3686   .debug_loc:0000000000000398 .LLST4
     /tmp/ccVwpxMU.s:109    .text:0000000000000080 .LBB25
     /tmp/ccVwpxMU.s:116    .text:0000000000000084 .LBE25
     /tmp/ccVwpxMU.s:3693   .debug_loc:00000000000003bb .LLST5
     /tmp/ccVwpxMU.s:123    .text:0000000000000090 .LVL10
     /tmp/ccVwpxMU.s:139    .text:00000000000000b4 .LVL12
     /tmp/ccVwpxMU.s:161    .text:00000000000000d4 .LVL15
     /tmp/ccVwpxMU.s:3951   .debug_str:000000000000072e .LASF156
     /tmp/ccVwpxMU.s:3865   .debug_str:000000000000042a .LASF157
     /tmp/ccVwpxMU.s:4033   .debug_str:00000000000009dd .LASF158
     /tmp/ccVwpxMU.s:3811   .debug_str:0000000000000257 .LASF159
     /tmp/ccVwpxMU.s:266    .text:000000000000015c .LVL21
     /tmp/ccVwpxMU.s:296    .text:00000000000001ac .LVL22
     /tmp/ccVwpxMU.s:346    .text:0000000000000210 .LVL26
     /tmp/ccVwpxMU.s:353    .text:000000000000021c .LVL28
     /tmp/ccVwpxMU.s:349    .text:0000000000000214 .LVL27
     /tmp/ccVwpxMU.s:310    .text:00000000000001d0 .LVL24
     /tmp/ccVwpxMU.s:361    .text:0000000000000224 .LVL29
     /tmp/ccVwpxMU.s:319    .text:00000000000001e4 .LVL25
     /tmp/ccVwpxMU.s:36     .text:0000000000000030 .LVL1
     /tmp/ccVwpxMU.s:44     .text:0000000000000038 .LVL2
     /tmp/ccVwpxMU.s:382    .text:000000000000022c .LVL30
     /tmp/ccVwpxMU.s:409    .text:000000000000025c .LVL32
     /tmp/ccVwpxMU.s:429    .text:0000000000000284 .LVL36
     /tmp/ccVwpxMU.s:456    .text:00000000000002b0 .LVL39
     /tmp/ccVwpxMU.s:459    .text:00000000000002b4 .LVL40
     /tmp/ccVwpxMU.s:462    .text:00000000000002b8 .LVL41
     /tmp/ccVwpxMU.s:403    .text:0000000000000258 .LVL31
     /tmp/ccVwpxMU.s:415    .text:0000000000000268 .LVL34
     /tmp/ccVwpxMU.s:85     .text:0000000000000070 .LVL4
     /tmp/ccVwpxMU.s:150    .text:00000000000000c0 .LVL13
     /tmp/ccVwpxMU.s:154    .text:00000000000000c8 .LVL14
     /tmp/ccVwpxMU.s:137    .text:00000000000000ac .LVL11
     /tmp/ccVwpxMU.s:92     .text:0000000000000074 .LVL5
     /tmp/ccVwpxMU.s:97     .text:0000000000000078 .LVL6
     /tmp/ccVwpxMU.s:103    .text:000000000000007c .LVL7
     /tmp/ccVwpxMU.s:108    .text:0000000000000080 .LVL8
     /tmp/ccVwpxMU.s:114    .text:0000000000000084 .LVL9
     /tmp/ccVwpxMU.s:511    .debug_info:0000000000000000 .Ldebug_info0
     /tmp/ccVwpxMU.s:187    .text:00000000000000e4 .LBE28
     /tmp/ccVwpxMU.s:243    .text:0000000000000148 .LBB34
     /tmp/ccVwpxMU.s:251    .text:0000000000000154 .LBE34
     /tmp/ccVwpxMU.s:302    .text:00000000000001bc .LBB38
     /tmp/ccVwpxMU.s:335    .text:0000000000000204 .LBE38
     /tmp/ccVwpxMU.s:357    .text:000000000000021c .LBB39
     /tmp/ccVwpxMU.s:366    .text:000000000000022c .LBE39
     /tmp/ccVwpxMU.s:470    .gcc_except_table:0000000000000000 .LLSDA55

UNDEFINED SYMBOLS
_Z11thread_exitv
GAS LISTING /tmp/ccVwpxMU.s 			page 22


_ZN9Scheduler3getEv
_ZN7_thread13switchContextEPNS_7ContextES1_
_ZN9Scheduler3putEP7_thread
_ZN2IO12outputBufferE
CONSOLE_STATUS
_ZN6Buffer4getcEv
CONSOLE_TX_DATA
_ZN15MemoryAllocator9mem_allocEm
main
_ZN5RISCV6isMainE
_ZN15MemoryAllocator8mem_freeEPv
_Unwind_Resume
__gxx_personality_v0
