GAS LISTING /tmp/ccw0kKAV.s 			page 1


   1              		.file	"buffer.cpp"
   2              		.option pic
   3              		.option norelax
   4              		.text
   5              	.Ltext0:
   6              		.align	2
   7              		.globl	_ZN6BufferC2Ev
   9              	_ZN6BufferC2Ev:
  10              	.LFB55:
  11              		.file 1 "src/buffer.cpp"
   1:src/buffer.cpp **** #include "../h/buffer.hpp"
   2:src/buffer.cpp **** 
   3:src/buffer.cpp **** Buffer::Buffer() : itemAvailable(_sem::init(0)){
  12              		.loc 1 3 1
  13              		.cfi_startproc
  14              	.LVL0:
  15 0000 130101FE 		addi	sp,sp,-32
  16              		.cfi_def_cfa_offset 32
  17 0004 233C1100 		sd	ra,24(sp)
  18 0008 23388100 		sd	s0,16(sp)
  19 000c 23349100 		sd	s1,8(sp)
  20              		.cfi_offset 1, -8
  21              		.cfi_offset 8, -16
  22              		.cfi_offset 9, -24
  23 0010 13040102 		addi	s0,sp,32
  24              		.cfi_def_cfa 8, 0
  25 0014 93040500 		mv	s1,a0
  26              	.LBB2:
  27              		.loc 1 3 44 is_stmt 0
  28 0018 13050000 		li	a0,0
  29              	.LVL1:
  30 001c 97000000 		call	_ZN4_sem4initEi@plt
  30      E7800000 
  31              	.LVL2:
  32              		.loc 1 3 47
  33 0024 23B0A400 		sd	a0,0(s1)
  34 0028 23B40410 		sd	zero,264(s1)
  35 002c 23B80410 		sd	zero,272(s1)
  36 0030 23BC0410 		sd	zero,280(s1)
  37              	.LBE2:
   4:src/buffer.cpp ****    //sem_open(&itemAvailable, 0);
   5:src/buffer.cpp **** }
  38              		.loc 1 5 1
  39 0034 83308101 		ld	ra,24(sp)
  40              		.cfi_restore 1
  41 0038 03340101 		ld	s0,16(sp)
  42              		.cfi_restore 8
  43              		.cfi_def_cfa 2, 32
  44 003c 83348100 		ld	s1,8(sp)
  45              		.cfi_restore 9
  46              	.LVL3:
  47 0040 13010102 		addi	sp,sp,32
  48              		.cfi_def_cfa_offset 0
  49 0044 67800000 		jr	ra
  50              		.cfi_endproc
  51              	.LFE55:
  53              		.globl	_ZN6BufferC1Ev
GAS LISTING /tmp/ccw0kKAV.s 			page 2


  54              		.set	_ZN6BufferC1Ev,_ZN6BufferC2Ev
  55              		.align	2
  56              		.globl	_ZN6Buffer4putcEc
  58              	_ZN6Buffer4putcEc:
  59              	.LFB57:
   6:src/buffer.cpp **** 
   7:src/buffer.cpp **** void Buffer::putc(char c) {
  60              		.loc 1 7 27 is_stmt 1
  61              		.cfi_startproc
  62              	.LVL4:
   8:src/buffer.cpp ****     if(count < bafSize){
  63              		.loc 1 8 5
  64              		.loc 1 8 8 is_stmt 0
  65 0048 83378511 		ld	a5,280(a0)
  66              		.loc 1 8 5
  67 004c 1307F00F 		li	a4,255
  68 0050 6374F700 		bleu	a5,a4,.L9
  69 0054 67800000 		ret
  70              	.L9:
   7:src/buffer.cpp ****     if(count < bafSize){
  71              		.loc 1 7 27
  72 0058 130101FF 		addi	sp,sp,-16
  73              		.cfi_def_cfa_offset 16
  74 005c 23341100 		sd	ra,8(sp)
  75 0060 23308100 		sd	s0,0(sp)
  76              		.cfi_offset 1, -8
  77              		.cfi_offset 8, -16
  78 0064 13040101 		addi	s0,sp,16
  79              		.cfi_def_cfa 8, 0
   9:src/buffer.cpp ****         buffer[tail] = c;
  80              		.loc 1 9 9 is_stmt 1
  81              		.loc 1 9 16 is_stmt 0
  82 0068 03370511 		ld	a4,272(a0)
  83              		.loc 1 9 22
  84 006c B306E500 		add	a3,a0,a4
  85 0070 2384B600 		sb	a1,8(a3)
  10:src/buffer.cpp ****         tail = (tail + 1)%bafSize;
  86              		.loc 1 10 9 is_stmt 1
  87              		.loc 1 10 22 is_stmt 0
  88 0074 13071700 		addi	a4,a4,1
  89              		.loc 1 10 26
  90 0078 1377F70F 		andi	a4,a4,255
  91              		.loc 1 10 14
  92 007c 2338E510 		sd	a4,272(a0)
  11:src/buffer.cpp ****         count++;
  93              		.loc 1 11 9 is_stmt 1
  94              		.loc 1 11 14 is_stmt 0
  95 0080 93871700 		addi	a5,a5,1
  96 0084 233CF510 		sd	a5,280(a0)
  12:src/buffer.cpp ****         itemAvailable->signal();
  97              		.loc 1 12 9 is_stmt 1
  98              		.loc 1 12 30 is_stmt 0
  99 0088 03350500 		ld	a0,0(a0)
 100              	.LVL5:
 101 008c 97000000 		call	_ZN4_sem6signalEv@plt
 101      E7800000 
 102              	.LVL6:
GAS LISTING /tmp/ccw0kKAV.s 			page 3


  13:src/buffer.cpp ****     }
  14:src/buffer.cpp **** }
 103              		.loc 1 14 1
 104 0094 83308100 		ld	ra,8(sp)
 105              		.cfi_restore 1
 106 0098 03340100 		ld	s0,0(sp)
 107              		.cfi_restore 8
 108              		.cfi_def_cfa 2, 16
 109 009c 13010101 		addi	sp,sp,16
 110              		.cfi_def_cfa_offset 0
 111 00a0 67800000 		jr	ra
 112              		.cfi_endproc
 113              	.LFE57:
 115              		.align	2
 116              		.globl	_ZN6Buffer4getcEv
 118              	_ZN6Buffer4getcEv:
 119              	.LFB58:
  15:src/buffer.cpp **** 
  16:src/buffer.cpp **** char Buffer::getc() {
 120              		.loc 1 16 21 is_stmt 1
 121              		.cfi_startproc
 122              	.LVL7:
 123 00a4 130101FE 		addi	sp,sp,-32
 124              		.cfi_def_cfa_offset 32
 125 00a8 233C1100 		sd	ra,24(sp)
 126 00ac 23388100 		sd	s0,16(sp)
 127 00b0 23349100 		sd	s1,8(sp)
 128              		.cfi_offset 1, -8
 129              		.cfi_offset 8, -16
 130              		.cfi_offset 9, -24
 131 00b4 13040102 		addi	s0,sp,32
 132              		.cfi_def_cfa 8, 0
 133 00b8 93040500 		mv	s1,a0
  17:src/buffer.cpp ****     itemAvailable->wait();
 134              		.loc 1 17 5
 135              		.loc 1 17 24 is_stmt 0
 136 00bc 03350500 		ld	a0,0(a0)
 137              	.LVL8:
 138 00c0 97000000 		call	_ZN4_sem4waitEv@plt
 138      E7800000 
 139              	.LVL9:
  18:src/buffer.cpp ****     char ret = buffer[head];
 140              		.loc 1 18 5 is_stmt 1
 141              		.loc 1 18 23 is_stmt 0
 142 00c8 83B78410 		ld	a5,264(s1)
 143              		.loc 1 18 10
 144 00cc 3387F400 		add	a4,s1,a5
 145 00d0 03458700 		lbu	a0,8(a4)
 146              	.LVL10:
  19:src/buffer.cpp ****     head = (head + 1)%bafSize;
 147              		.loc 1 19 5 is_stmt 1
 148              		.loc 1 19 18 is_stmt 0
 149 00d4 93871700 		addi	a5,a5,1
 150              		.loc 1 19 22
 151 00d8 93F7F70F 		andi	a5,a5,255
 152              		.loc 1 19 10
 153 00dc 23B4F410 		sd	a5,264(s1)
GAS LISTING /tmp/ccw0kKAV.s 			page 4


  20:src/buffer.cpp ****     count--;
 154              		.loc 1 20 5 is_stmt 1
 155 00e0 83B78411 		ld	a5,280(s1)
 156              		.loc 1 20 10 is_stmt 0
 157 00e4 9387F7FF 		addi	a5,a5,-1
 158 00e8 23BCF410 		sd	a5,280(s1)
  21:src/buffer.cpp ****     return ret;
 159              		.loc 1 21 5 is_stmt 1
  22:src/buffer.cpp **** }
 160              		.loc 1 22 1 is_stmt 0
 161 00ec 83308101 		ld	ra,24(sp)
 162              		.cfi_restore 1
 163 00f0 03340101 		ld	s0,16(sp)
 164              		.cfi_restore 8
 165              		.cfi_def_cfa 2, 32
 166 00f4 83348100 		ld	s1,8(sp)
 167              		.cfi_restore 9
 168              	.LVL11:
 169 00f8 13010102 		addi	sp,sp,32
 170              		.cfi_def_cfa_offset 0
 171 00fc 67800000 		jr	ra
 172              		.cfi_endproc
 173              	.LFE58:
 175              		.align	2
 176              		.globl	_ZN6Buffer4initEv
 178              	_ZN6Buffer4initEv:
 179              	.LFB59:
  23:src/buffer.cpp **** 
  24:src/buffer.cpp **** void Buffer::init() {
 180              		.loc 1 24 21 is_stmt 1
 181              		.cfi_startproc
 182              	.LVL12:
 183 0100 130101FE 		addi	sp,sp,-32
 184              		.cfi_def_cfa_offset 32
 185 0104 233C1100 		sd	ra,24(sp)
 186 0108 23388100 		sd	s0,16(sp)
 187 010c 23349100 		sd	s1,8(sp)
 188              		.cfi_offset 1, -8
 189              		.cfi_offset 8, -16
 190              		.cfi_offset 9, -24
 191 0110 13040102 		addi	s0,sp,32
 192              		.cfi_def_cfa 8, 0
 193 0114 93040500 		mv	s1,a0
  25:src/buffer.cpp ****     _sem* temp = _sem::init(0);
 194              		.loc 1 25 5
 195              		.loc 1 25 28 is_stmt 0
 196 0118 13050000 		li	a0,0
 197              	.LVL13:
 198 011c 97000000 		call	_ZN4_sem4initEi@plt
 198      E7800000 
 199              	.LVL14:
  26:src/buffer.cpp ****     itemAvailable = temp;
 200              		.loc 1 26 5 is_stmt 1
 201              		.loc 1 26 19 is_stmt 0
 202 0124 23B0A400 		sd	a0,0(s1)
  27:src/buffer.cpp **** }
 203              		.loc 1 27 1
GAS LISTING /tmp/ccw0kKAV.s 			page 5


 204 0128 83308101 		ld	ra,24(sp)
 205              		.cfi_restore 1
 206 012c 03340101 		ld	s0,16(sp)
 207              		.cfi_restore 8
 208              		.cfi_def_cfa 2, 32
 209 0130 83348100 		ld	s1,8(sp)
 210              		.cfi_restore 9
 211              	.LVL15:
 212 0134 13010102 		addi	sp,sp,32
 213              		.cfi_def_cfa_offset 0
 214 0138 67800000 		jr	ra
 215              		.cfi_endproc
 216              	.LFE59:
 218              	.Letext0:
 219              		.file 2 "src/../h/../lib/hw.h"
 220              		.file 3 "src/../h/ThreadList.hpp"
 221              		.file 4 "src/../h/_thread.hpp"
 222              		.file 5 "src/../h/syscall_c.h"
 223              		.file 6 "src/../h/_sem.hpp"
 224              		.file 7 "src/../h/buffer.hpp"
GAS LISTING /tmp/ccw0kKAV.s 			page 6

