GAS LISTING /tmp/ccrLgHot.s 			page 1


   1              		.file	"IO.cpp"
   2              		.option pic
   3              		.option norelax
   4              		.text
   5              	.Ltext0:
   6              		.align	2
   8              	_Z41__static_initialization_and_destruction_0ii:
   9              	.LFB58:
  10              		.file 1 "src/IO.cpp"
   1:src/IO.cpp    **** #include "../h/IO.hpp"
   2:src/IO.cpp    **** 
   3:src/IO.cpp    **** Buffer IO::inputBuffer;
   4:src/IO.cpp    **** Buffer IO::outputBuffer;
   5:src/IO.cpp    **** 
   6:src/IO.cpp    **** void IO::initIO() {
   7:src/IO.cpp    ****     inputBuffer.init();
   8:src/IO.cpp    ****     outputBuffer.init();
   9:src/IO.cpp    **** }
  10:src/IO.cpp    **** 
  11:src/IO.cpp    **** void IO::_putC(char ch) {
  12:src/IO.cpp    ****     outputBuffer.putc(ch);
  13:src/IO.cpp    **** }
  14:src/IO.cpp    **** 
  15:src/IO.cpp    **** char IO::_getC() {
  16:src/IO.cpp    ****     return inputBuffer.getc();
  17:src/IO.cpp    **** }
  18:src/IO.cpp    **** 
  19:src/IO.cpp    **** void IO::closeIO() {
  20:src/IO.cpp    ****     _sem::close_sem(inputBuffer.itemAvailable);
  21:src/IO.cpp    ****     _sem::close_sem(outputBuffer.itemAvailable);
  22:src/IO.cpp    **** }
  11              		.loc 1 22 1
  12              		.cfi_startproc
  13              	.LVL0:
  14 0000 93071000 		li	a5,1
  15 0004 6304F500 		beq	a0,a5,.L7
  16              	.L4:
  17 0008 67800000 		ret
  18              	.L7:
  19              		.loc 1 22 1 is_stmt 0 discriminator 1
  20 000c B7070100 		li	a5,65536
  21 0010 9387F7FF 		addi	a5,a5,-1
  22 0014 E39AF5FE 		bne	a1,a5,.L4
  23              		.loc 1 22 1
  24 0018 130101FF 		addi	sp,sp,-16
  25              		.cfi_def_cfa_offset 16
  26 001c 23341100 		sd	ra,8(sp)
  27 0020 23308100 		sd	s0,0(sp)
  28              		.cfi_offset 1, -8
  29              		.cfi_offset 8, -16
  30 0024 13040101 		addi	s0,sp,16
  31              		.cfi_def_cfa 8, 0
   3:src/IO.cpp    **** 
  32              		.loc 1 3 12
  33 0028 17050000 		lla	a0,.LANCHOR0
  33      13050500 
  34              	.LVL1:
GAS LISTING /tmp/ccrLgHot.s 			page 2


  35 0030 97000000 		call	_ZN6BufferC1Ev@plt
  35      E7800000 
  36              	.LVL2:
   4:src/IO.cpp    **** void IO::initIO() {
  37              		.loc 1 4 12
  38 0038 17050000 		lla	a0,.LANCHOR0+288
  38      13050500 
  39 0040 97000000 		call	_ZN6BufferC1Ev@plt
  39      E7800000 
  40              	.LVL3:
  41              		.loc 1 22 1
  42 0048 83308100 		ld	ra,8(sp)
  43              		.cfi_restore 1
  44 004c 03340100 		ld	s0,0(sp)
  45              		.cfi_restore 8
  46              		.cfi_def_cfa 2, 16
  47 0050 13010101 		addi	sp,sp,16
  48              		.cfi_def_cfa_offset 0
  49 0054 67800000 		jr	ra
  50              		.cfi_endproc
  51              	.LFE58:
  53              		.align	2
  54              		.globl	_ZN2IO6initIOEv
  56              	_ZN2IO6initIOEv:
  57              	.LFB54:
   6:src/IO.cpp    ****     inputBuffer.init();
  58              		.loc 1 6 19 is_stmt 1
  59              		.cfi_startproc
  60 0058 130101FF 		addi	sp,sp,-16
  61              		.cfi_def_cfa_offset 16
  62 005c 23341100 		sd	ra,8(sp)
  63 0060 23308100 		sd	s0,0(sp)
  64              		.cfi_offset 1, -8
  65              		.cfi_offset 8, -16
  66 0064 13040101 		addi	s0,sp,16
  67              		.cfi_def_cfa 8, 0
   7:src/IO.cpp    ****     outputBuffer.init();
  68              		.loc 1 7 5
   7:src/IO.cpp    ****     outputBuffer.init();
  69              		.loc 1 7 21 is_stmt 0
  70 0068 17050000 		lla	a0,.LANCHOR0
  70      13050500 
  71 0070 97000000 		call	_ZN6Buffer4initEv@plt
  71      E7800000 
  72              	.LVL4:
   8:src/IO.cpp    **** }
  73              		.loc 1 8 5 is_stmt 1
   8:src/IO.cpp    **** }
  74              		.loc 1 8 22 is_stmt 0
  75 0078 17050000 		lla	a0,.LANCHOR0+288
  75      13050500 
  76 0080 97000000 		call	_ZN6Buffer4initEv@plt
  76      E7800000 
  77              	.LVL5:
   9:src/IO.cpp    **** 
  78              		.loc 1 9 1
  79 0088 83308100 		ld	ra,8(sp)
GAS LISTING /tmp/ccrLgHot.s 			page 3


  80              		.cfi_restore 1
  81 008c 03340100 		ld	s0,0(sp)
  82              		.cfi_restore 8
  83              		.cfi_def_cfa 2, 16
  84 0090 13010101 		addi	sp,sp,16
  85              		.cfi_def_cfa_offset 0
  86 0094 67800000 		jr	ra
  87              		.cfi_endproc
  88              	.LFE54:
  90              		.align	2
  91              		.globl	_ZN2IO5_putCEc
  93              	_ZN2IO5_putCEc:
  94              	.LFB55:
  11:src/IO.cpp    ****     outputBuffer.putc(ch);
  95              		.loc 1 11 25 is_stmt 1
  96              		.cfi_startproc
  97              	.LVL6:
  98 0098 130101FF 		addi	sp,sp,-16
  99              		.cfi_def_cfa_offset 16
 100 009c 23341100 		sd	ra,8(sp)
 101 00a0 23308100 		sd	s0,0(sp)
 102              		.cfi_offset 1, -8
 103              		.cfi_offset 8, -16
 104 00a4 13040101 		addi	s0,sp,16
 105              		.cfi_def_cfa 8, 0
 106 00a8 93050500 		mv	a1,a0
  12:src/IO.cpp    **** }
 107              		.loc 1 12 5
  12:src/IO.cpp    **** }
 108              		.loc 1 12 22 is_stmt 0
 109 00ac 17050000 		lla	a0,.LANCHOR0+288
 109      13050500 
 110              	.LVL7:
 111 00b4 97000000 		call	_ZN6Buffer4putcEc@plt
 111      E7800000 
 112              	.LVL8:
  13:src/IO.cpp    **** 
 113              		.loc 1 13 1
 114 00bc 83308100 		ld	ra,8(sp)
 115              		.cfi_restore 1
 116 00c0 03340100 		ld	s0,0(sp)
 117              		.cfi_restore 8
 118              		.cfi_def_cfa 2, 16
 119 00c4 13010101 		addi	sp,sp,16
 120              		.cfi_def_cfa_offset 0
 121 00c8 67800000 		jr	ra
 122              		.cfi_endproc
 123              	.LFE55:
 125              		.align	2
 126              		.globl	_ZN2IO5_getCEv
 128              	_ZN2IO5_getCEv:
 129              	.LFB56:
  15:src/IO.cpp    ****     return inputBuffer.getc();
 130              		.loc 1 15 18 is_stmt 1
 131              		.cfi_startproc
 132 00cc 130101FF 		addi	sp,sp,-16
 133              		.cfi_def_cfa_offset 16
GAS LISTING /tmp/ccrLgHot.s 			page 4


 134 00d0 23341100 		sd	ra,8(sp)
 135 00d4 23308100 		sd	s0,0(sp)
 136              		.cfi_offset 1, -8
 137              		.cfi_offset 8, -16
 138 00d8 13040101 		addi	s0,sp,16
 139              		.cfi_def_cfa 8, 0
  16:src/IO.cpp    **** }
 140              		.loc 1 16 5
  16:src/IO.cpp    **** }
 141              		.loc 1 16 28 is_stmt 0
 142 00dc 17050000 		lla	a0,.LANCHOR0
 142      13050500 
 143 00e4 97000000 		call	_ZN6Buffer4getcEv@plt
 143      E7800000 
 144              	.LVL9:
  17:src/IO.cpp    **** 
 145              		.loc 1 17 1
 146 00ec 83308100 		ld	ra,8(sp)
 147              		.cfi_restore 1
 148 00f0 03340100 		ld	s0,0(sp)
 149              		.cfi_restore 8
 150              		.cfi_def_cfa 2, 16
 151 00f4 13010101 		addi	sp,sp,16
 152              		.cfi_def_cfa_offset 0
 153 00f8 67800000 		jr	ra
 154              		.cfi_endproc
 155              	.LFE56:
 157              		.align	2
 158              		.globl	_ZN2IO7closeIOEv
 160              	_ZN2IO7closeIOEv:
 161              	.LFB57:
  19:src/IO.cpp    ****     _sem::close_sem(inputBuffer.itemAvailable);
 162              		.loc 1 19 20 is_stmt 1
 163              		.cfi_startproc
 164 00fc 130101FE 		addi	sp,sp,-32
 165              		.cfi_def_cfa_offset 32
 166 0100 233C1100 		sd	ra,24(sp)
 167 0104 23388100 		sd	s0,16(sp)
 168 0108 23349100 		sd	s1,8(sp)
 169              		.cfi_offset 1, -8
 170              		.cfi_offset 8, -16
 171              		.cfi_offset 9, -24
 172 010c 13040102 		addi	s0,sp,32
 173              		.cfi_def_cfa 8, 0
  20:src/IO.cpp    ****     _sem::close_sem(outputBuffer.itemAvailable);
 174              		.loc 1 20 5
  20:src/IO.cpp    ****     _sem::close_sem(outputBuffer.itemAvailable);
 175              		.loc 1 20 20 is_stmt 0
 176 0110 97040000 		lla	s1,.LANCHOR0
 176      93840400 
 177 0118 03B50400 		ld	a0,0(s1)
 178 011c 97000000 		call	_ZN4_sem9close_semEPS_@plt
 178      E7800000 
 179              	.LVL10:
  21:src/IO.cpp    **** }
 180              		.loc 1 21 5 is_stmt 1
  21:src/IO.cpp    **** }
GAS LISTING /tmp/ccrLgHot.s 			page 5


 181              		.loc 1 21 20 is_stmt 0
 182 0124 03B50412 		ld	a0,288(s1)
 183 0128 97000000 		call	_ZN4_sem9close_semEPS_@plt
 183      E7800000 
 184              	.LVL11:
 185              		.loc 1 22 1
 186 0130 83308101 		ld	ra,24(sp)
 187              		.cfi_restore 1
 188 0134 03340101 		ld	s0,16(sp)
 189              		.cfi_restore 8
 190              		.cfi_def_cfa 2, 32
 191 0138 83348100 		ld	s1,8(sp)
 192              		.cfi_restore 9
 193 013c 13010102 		addi	sp,sp,32
 194              		.cfi_def_cfa_offset 0
 195 0140 67800000 		jr	ra
 196              		.cfi_endproc
 197              	.LFE57:
 199              		.align	2
 201              	_GLOBAL__sub_I__ZN2IO11inputBufferE:
 202              	.LFB59:
 203              		.loc 1 22 1 is_stmt 1
 204              		.cfi_startproc
 205 0144 130101FF 		addi	sp,sp,-16
 206              		.cfi_def_cfa_offset 16
 207 0148 23341100 		sd	ra,8(sp)
 208 014c 23308100 		sd	s0,0(sp)
 209              		.cfi_offset 1, -8
 210              		.cfi_offset 8, -16
 211 0150 13040101 		addi	s0,sp,16
 212              		.cfi_def_cfa 8, 0
 213              		.loc 1 22 1 is_stmt 0
 214 0154 B7050100 		li	a1,65536
 215 0158 9385F5FF 		addi	a1,a1,-1
 216 015c 13051000 		li	a0,1
 217 0160 97000000 		call	_Z41__static_initialization_and_destruction_0ii
 217      E7800000 
 218              	.LVL12:
 219 0168 83308100 		ld	ra,8(sp)
 220              		.cfi_restore 1
 221 016c 03340100 		ld	s0,0(sp)
 222              		.cfi_restore 8
 223              		.cfi_def_cfa 2, 16
 224 0170 13010101 		addi	sp,sp,16
 225              		.cfi_def_cfa_offset 0
 226 0174 67800000 		jr	ra
 227              		.cfi_endproc
 228              	.LFE59:
 230              		.section	.init_array,"aw"
 231              		.align	3
 232 0000 00000000 		.dword	_GLOBAL__sub_I__ZN2IO11inputBufferE
 232      00000000 
 233              		.globl	_ZN2IO12outputBufferE
 234              		.globl	_ZN2IO11inputBufferE
 235              		.bss
 236              		.align	3
 237              		.set	.LANCHOR0,. + 0
GAS LISTING /tmp/ccrLgHot.s 			page 6


 240              	_ZN2IO11inputBufferE:
 241 0000 00000000 		.zero	288
 241      00000000 
 241      00000000 
 241      00000000 
 241      00000000 
 244              	_ZN2IO12outputBufferE:
 245 0120 00000000 		.zero	288
 245      00000000 
 245      00000000 
 245      00000000 
 245      00000000 
 246              		.text
 247              	.Letext0:
 248              		.file 2 "src/../h/../lib/hw.h"
 249              		.file 3 "src/../h/ThreadList.hpp"
 250              		.file 4 "src/../h/_thread.hpp"
 251              		.file 5 "src/../h/syscall_c.h"
 252              		.file 6 "src/../h/_sem.hpp"
 253              		.file 7 "src/../h/buffer.hpp"
 254              		.file 8 "src/../h/IO.hpp"
GAS LISTING /tmp/ccrLgHot.s 			page 7

