GAS LISTING /tmp/ccpt8PZU.s 			page 1


   1              		.file	"main.cpp"
   2              		.option pic
   3              		.option norelax
   4              		.text
   5              	.Ltext0:
   6              		.align	2
   7              		.globl	_Z11userWrapeprPv
   9              	_Z11userWrapeprPv:
  10              	.LFB54:
  11              		.file 1 "src/main.cpp"
   1:src/main.cpp  **** #include "../h/ThreadList.hpp"
   2:src/main.cpp  **** #include "../h/RISCV.hpp"
   3:src/main.cpp  **** 
   4:src/main.cpp  **** 
   5:src/main.cpp  **** bool finished = false;
   6:src/main.cpp  **** extern void userMain();
   7:src/main.cpp  **** void userWrapepr(void*){
  12              		.loc 1 7 24
  13              		.cfi_startproc
  14 0000 130101FF 		addi	sp,sp,-16
  15              		.cfi_def_cfa_offset 16
  16 0004 23341100 		sd	ra,8(sp)
  17 0008 23308100 		sd	s0,0(sp)
  18              		.cfi_offset 1, -8
  19              		.cfi_offset 8, -16
  20 000c 13040101 		addi	s0,sp,16
  21              		.cfi_def_cfa 8, 0
   8:src/main.cpp  ****     userMain();
  22              		.loc 1 8 5
  23              		.loc 1 8 13 is_stmt 0
  24 0010 97000000 		call	_Z8userMainv@plt
  24      E7800000 
  25              	.LVL0:
   9:src/main.cpp  ****     finished = true;
  26              		.loc 1 9 5 is_stmt 1
  27              		.loc 1 9 14 is_stmt 0
  28 0018 93071000 		li	a5,1
  29 001c 17070000 		sb	a5,.LANCHOR0,a4
  29      2300F700 
  10:src/main.cpp  **** }
  30              		.loc 1 10 1
  31 0024 83308100 		ld	ra,8(sp)
  32              		.cfi_restore 1
  33 0028 03340100 		ld	s0,0(sp)
  34              		.cfi_restore 8
  35              		.cfi_def_cfa 2, 16
  36 002c 13010101 		addi	sp,sp,16
  37              		.cfi_def_cfa_offset 0
  38 0030 67800000 		jr	ra
  39              		.cfi_endproc
  40              	.LFE54:
  42              		.align	2
  43              		.globl	main
  45              	main:
  46              	.LFB55:
  11:src/main.cpp  **** 
  12:src/main.cpp  **** 
GAS LISTING /tmp/ccpt8PZU.s 			page 2


  13:src/main.cpp  **** int main(int argc, char** argv){
  47              		.loc 1 13 32 is_stmt 1
  48              		.cfi_startproc
  49              	.LVL1:
  50 0034 130101FD 		addi	sp,sp,-48
  51              		.cfi_def_cfa_offset 48
  52 0038 23341102 		sd	ra,40(sp)
  53 003c 23308102 		sd	s0,32(sp)
  54 0040 233C9100 		sd	s1,24(sp)
  55              		.cfi_offset 1, -8
  56              		.cfi_offset 8, -16
  57              		.cfi_offset 9, -24
  58 0044 13040103 		addi	s0,sp,48
  59              		.cfi_def_cfa 8, 0
  14:src/main.cpp  ****     uint64 mra;
  60              		.loc 1 14 5
  15:src/main.cpp  ****     asm volatile("mv %0, ra":"=r"(mra));
  61              		.loc 1 15 5
  62              		.loc 1 15 40 is_stmt 0
  63              	#APP
  64              	# 15 "src/main.cpp" 1
  16              	    RISCV::w_stvec((uint64) &RISCV::setVectorTable | 0x00);
  65              		mv s1, ra
  66              	# 0 "" 2
  67              	.LVL2:
  68              		.loc 1 16 5 is_stmt 1
  69              		.loc 1 16 19 is_stmt 0
  70              	#NO_APP
  71 004c 97070000 		la	a5,_ZN5RISCV14setVectorTableEv
  71      83B70700 
  72              	.LVL3:
  73              	.LBB14:
  74              	.LBB15:
  75              		.file 2 "src/../h/RISCV.hpp"
   1:src/../h/RISCV.hpp **** //
   2:src/../h/RISCV.hpp **** // Created by os on 5/20/24.
   3:src/../h/RISCV.hpp **** //
   4:src/../h/RISCV.hpp **** 
   5:src/../h/RISCV.hpp **** #ifndef PROJECT_BASE_V1_1_RISCV_HPP
   6:src/../h/RISCV.hpp **** #define PROJECT_BASE_V1_1_RISCV_HPP
   7:src/../h/RISCV.hpp **** class SleepingList;
   8:src/../h/RISCV.hpp **** #include "../lib/hw.h"
   9:src/../h/RISCV.hpp **** #include "syscall_c.h"
  10:src/../h/RISCV.hpp **** #include "Scheduler.hpp"
  11:src/../h/RISCV.hpp **** #include "SleepingList.hpp"
  12:src/../h/RISCV.hpp **** #include "IO.hpp"
  13:src/../h/RISCV.hpp **** #include "_thread.hpp"
  14:src/../h/RISCV.hpp **** 
  15:src/../h/RISCV.hpp **** class RISCV{
  16:src/../h/RISCV.hpp **** public:
  17:src/../h/RISCV.hpp **** 
  18:src/../h/RISCV.hpp ****     static bool modeUser;
  19:src/../h/RISCV.hpp ****     static bool isMain;
  20:src/../h/RISCV.hpp **** 
  21:src/../h/RISCV.hpp ****     static void setMode(bool newMode){
  22:src/../h/RISCV.hpp ****         modeUser = newMode;
  23:src/../h/RISCV.hpp ****     }
GAS LISTING /tmp/ccpt8PZU.s 			page 3


  24:src/../h/RISCV.hpp **** 
  25:src/../h/RISCV.hpp ****     enum BitMaskSip {
  26:src/../h/RISCV.hpp ****         //Software interrupt/Timer interrupt
  27:src/../h/RISCV.hpp ****         SIP_SSIP = (1 << 1),
  28:src/../h/RISCV.hpp ****         //Hardware interrupt
  29:src/../h/RISCV.hpp ****         SIP_SEIP = (1 << 9)
  30:src/../h/RISCV.hpp ****     };
  31:src/../h/RISCV.hpp **** 
  32:src/../h/RISCV.hpp ****     enum BitMaskSstatus {
  33:src/../h/RISCV.hpp ****         SSTATUS_SIE = (1 << 1),
  34:src/../h/RISCV.hpp ****         SSTATUS_SPIE = (1 << 5),
  35:src/../h/RISCV.hpp ****         SSTATUS_SPP = (1 << 8)
  36:src/../h/RISCV.hpp ****     };
  37:src/../h/RISCV.hpp **** 
  38:src/../h/RISCV.hpp ****     static void ms_sstatus(uint64 mask);
  39:src/../h/RISCV.hpp **** 
  40:src/../h/RISCV.hpp **** 
  41:src/../h/RISCV.hpp ****     static void returnFromInter();
  42:src/../h/RISCV.hpp **** 
  43:src/../h/RISCV.hpp ****     inline static void mc_sip(uint64 mask){
  44:src/../h/RISCV.hpp ****         asm volatile("csrc sip, %0"::"r"(mask));
  45:src/../h/RISCV.hpp ****     }
  46:src/../h/RISCV.hpp **** 
  47:src/../h/RISCV.hpp **** 
  48:src/../h/RISCV.hpp ****     inline static uint64 read_sepc(){
  49:src/../h/RISCV.hpp ****         uint64 volatile sepc;
  50:src/../h/RISCV.hpp ****         asm volatile("csrr %0, sepc" : "=r"(sepc));
  51:src/../h/RISCV.hpp ****         return sepc;
  52:src/../h/RISCV.hpp ****     }
  53:src/../h/RISCV.hpp **** 
  54:src/../h/RISCV.hpp ****     inline static uint64 read_scause(){
  55:src/../h/RISCV.hpp ****         uint64 volatile scause;
  56:src/../h/RISCV.hpp ****         asm volatile("csrr %0, scause" : "=r"(scause));
  57:src/../h/RISCV.hpp ****         return scause;
  58:src/../h/RISCV.hpp ****     }
  59:src/../h/RISCV.hpp **** 
  60:src/../h/RISCV.hpp ****     inline static void write_sepc(uint64 sepc){
  61:src/../h/RISCV.hpp ****         asm volatile ("csrw sepc, %0" : : "r"(sepc));
  62:src/../h/RISCV.hpp ****     }
  63:src/../h/RISCV.hpp **** 
  64:src/../h/RISCV.hpp ****     inline static void write_sstatus(uint64 sstatus){
  65:src/../h/RISCV.hpp ****         asm volatile("csrw sstatus, %0"::"r"(sstatus));
  66:src/../h/RISCV.hpp ****     }
  67:src/../h/RISCV.hpp **** 
  68:src/../h/RISCV.hpp ****     inline static uint64 read_sstatus(){
  69:src/../h/RISCV.hpp ****         uint64 sstatus;
  70:src/../h/RISCV.hpp ****         asm volatile("csrr %0, sstatus" : "=r"(sstatus));
  71:src/../h/RISCV.hpp ****         return sstatus;
  72:src/../h/RISCV.hpp ****     }
  73:src/../h/RISCV.hpp **** 
  74:src/../h/RISCV.hpp **** 
  75:src/../h/RISCV.hpp **** 
  76:src/../h/RISCV.hpp ****     inline static void w_stvec(uint64 vect){
  77:src/../h/RISCV.hpp ****         asm volatile(" csrw stvec, %0" : : "r"(vect));
  76              		.loc 2 77 9 is_stmt 1
  77              		.loc 2 77 54 is_stmt 0
  78              	#APP
GAS LISTING /tmp/ccpt8PZU.s 			page 4


  79              	# 77 "src/../h/RISCV.hpp" 1
  78              	    }
  80              		 csrw stvec, a5
  81              	# 0 "" 2
  82              	.LVL4:
  83              	#NO_APP
  84              	.LBE15:
  85              	.LBE14:
  17:src/main.cpp  ****     MemoryAllocator::init();
  86              		.loc 1 17 5 is_stmt 1
  87              	.LBB16:
  88              	.LBB17:
  89              		.file 3 "src/../h/MemAlloc.hpp"
   1:src/../h/MemAlloc.hpp **** //
   2:src/../h/MemAlloc.hpp **** // Created by os on 4/13/24.
   3:src/../h/MemAlloc.hpp **** //
   4:src/../h/MemAlloc.hpp **** 
   5:src/../h/MemAlloc.hpp **** #ifndef PROJECT_BASE_V1_1_MEMALLOC_HPP
   6:src/../h/MemAlloc.hpp **** #define PROJECT_BASE_V1_1_MEMALLOC_HPP
   7:src/../h/MemAlloc.hpp **** //#include "syscall_cpp.hpp"
   8:src/../h/MemAlloc.hpp **** #include "../lib/hw.h"
   9:src/../h/MemAlloc.hpp **** 
  10:src/../h/MemAlloc.hpp **** struct BlockHead{
  11:src/../h/MemAlloc.hpp ****     BlockHead* next;
  12:src/../h/MemAlloc.hpp ****     size_t size;
  13:src/../h/MemAlloc.hpp **** };
  14:src/../h/MemAlloc.hpp **** 
  15:src/../h/MemAlloc.hpp **** class MemoryAllocator{
  16:src/../h/MemAlloc.hpp **** 
  17:src/../h/MemAlloc.hpp ****     static BlockHead* freeStart;
  18:src/../h/MemAlloc.hpp ****     static BlockHead* usedStart;
  19:src/../h/MemAlloc.hpp **** 
  20:src/../h/MemAlloc.hpp **** public:
  21:src/../h/MemAlloc.hpp ****     static void* mem_alloc(size_t size);
  22:src/../h/MemAlloc.hpp **** 
  23:src/../h/MemAlloc.hpp ****     static int mem_free(void* old);
  24:src/../h/MemAlloc.hpp **** 
  25:src/../h/MemAlloc.hpp ****     static void tryJoinWithNext(BlockHead* curr);
  26:src/../h/MemAlloc.hpp **** 
  27:src/../h/MemAlloc.hpp ****     static void init(){
  28:src/../h/MemAlloc.hpp ****         freeStart = (BlockHead*)((char*)HEAP_START_ADDR);
  90              		.loc 3 28 9
  91              		.loc 3 28 19 is_stmt 0
  92 0058 97060000 		la	a3,HEAP_START_ADDR
  92      83B60600 
  93 0060 83B70600 		ld	a5,0(a3)
  94 0064 17070000 		la	a4,_ZN15MemoryAllocator9freeStartE
  94      03370700 
  95 006c 2330F700 		sd	a5,0(a4)
  29:src/../h/MemAlloc.hpp ****         usedStart = nullptr;
  96              		.loc 3 29 9 is_stmt 1
  97              		.loc 3 29 19 is_stmt 0
  98 0070 17060000 		la	a2,_ZN15MemoryAllocator9usedStartE
  98      03360600 
  99 0078 23300600 		sd	zero,0(a2)
  30:src/../h/MemAlloc.hpp **** 
  31:src/../h/MemAlloc.hpp ****         freeStart->next = nullptr;
GAS LISTING /tmp/ccpt8PZU.s 			page 5


 100              		.loc 3 31 9 is_stmt 1
 101              		.loc 3 31 25 is_stmt 0
 102 007c 23B00700 		sd	zero,0(a5)
  32:src/../h/MemAlloc.hpp ****         freeStart->size = ((char*) HEAP_END_ADDR - (char *) HEAP_START_ADDR - sizeof(BlockHead));
 103              		.loc 3 32 9 is_stmt 1
 104              		.loc 3 32 28 is_stmt 0
 105 0080 97070000 		la	a5,HEAP_END_ADDR
 105      83B70700 
 106 0088 83B70700 		ld	a5,0(a5)
 107              		.loc 3 32 52
 108 008c 83B60600 		ld	a3,0(a3)
 109              		.loc 3 32 50
 110 0090 B387D740 		sub	a5,a5,a3
 111              		.loc 3 32 20
 112 0094 03370700 		ld	a4,0(a4)
 113              		.loc 3 32 77
 114 0098 938707FF 		addi	a5,a5,-16
 115              		.loc 3 32 25
 116 009c 2334F700 		sd	a5,8(a4)
 117              	.LBE17:
 118              	.LBE16:
  18:src/main.cpp  ****     IO::initIO();
 119              		.loc 1 18 5 is_stmt 1
 120              		.loc 1 18 15 is_stmt 0
 121 00a0 97000000 		call	_ZN2IO6initIOEv@plt
 121      E7800000 
 122              	.LVL5:
  19:src/main.cpp  ****     thread_t main;
 123              		.loc 1 19 5 is_stmt 1
  20:src/main.cpp  ****     uint64 arg = 69;
 124              		.loc 1 20 5
  21:src/main.cpp  ****     thread_create(&main, (_thread::Func )main, nullptr);
 125              		.loc 1 21 5
 126              		.loc 1 21 18 is_stmt 0
 127 00a8 13060000 		li	a2,0
 128 00ac 833584FD 		ld	a1,-40(s0)
 129 00b0 130584FD 		addi	a0,s0,-40
 130 00b4 97000000 		call	_Z13thread_createPP7_threadPFvPvES2_@plt
 130      E7800000 
 131              	.LVL6:
  22:src/main.cpp  ****     thread_t user_thread;
 132              		.loc 1 22 5 is_stmt 1
  23:src/main.cpp  ****     thread_create(&user_thread, userWrapepr, (void*)arg);
 133              		.loc 1 23 5
 134              		.loc 1 23 18 is_stmt 0
 135 00bc 13065004 		li	a2,69
 136 00c0 97050000 		lla	a1,_Z11userWrapeprPv
 136      93850500 
 137 00c8 130504FD 		addi	a0,s0,-48
 138 00cc 97000000 		call	_Z13thread_createPP7_threadPFvPvES2_@plt
 138      E7800000 
 139              	.LVL7:
  24:src/main.cpp  ****     //  USER MODE STARTS HERE
  25:src/main.cpp  ****     RISCV::setMode(true);
 140              		.loc 1 25 5 is_stmt 1
 141              	.LBB18:
 142              	.LBB19:
GAS LISTING /tmp/ccpt8PZU.s 			page 6


  22:src/../h/RISCV.hpp ****     }
 143              		.loc 2 22 9
  22:src/../h/RISCV.hpp ****     }
 144              		.loc 2 22 18 is_stmt 0
 145 00d4 97070000 		la	a5,_ZN5RISCV8modeUserE
 145      83B70700 
 146 00dc 13071000 		li	a4,1
 147 00e0 2380E700 		sb	a4,0(a5)
 148              	.LVL8:
 149              	.L5:
 150              	.LBE19:
 151              	.LBE18:
  26:src/main.cpp  ****     while (!finished){
 152              		.loc 1 26 5 is_stmt 1
 153              		.loc 1 26 12
 154 00e4 97070000 		lbu	a5,.LANCHOR0
 154      83C70700 
 155 00ec 63980700 		bnez	a5,.L4
  27:src/main.cpp  ****         thread_dispatch();
 156              		.loc 1 27 9
 157              		.loc 1 27 24 is_stmt 0
 158 00f0 97000000 		call	_Z15thread_dispatchv@plt
 158      E7800000 
 159              	.LVL9:
 160 00f8 6FF0DFFE 		j	.L5
 161              	.L4:
  28:src/main.cpp  ****     }
  29:src/main.cpp  ****     RISCV::isMain = true;
 162              		.loc 1 29 5 is_stmt 1
 163              		.loc 1 29 19 is_stmt 0
 164 00fc 97070000 		la	a5,_ZN5RISCV6isMainE
 164      83B70700 
 165 0104 13071000 		li	a4,1
 166 0108 2380E700 		sb	a4,0(a5)
  30:src/main.cpp  ****     RISCV::setMode(false);
 167              		.loc 1 30 5 is_stmt 1
 168              	.LVL10:
 169              	.LBB20:
 170              	.LBB21:
  22:src/../h/RISCV.hpp ****     }
 171              		.loc 2 22 9
  22:src/../h/RISCV.hpp ****     }
 172              		.loc 2 22 18 is_stmt 0
 173 010c 97070000 		la	a5,_ZN5RISCV8modeUserE
 173      83B70700 
 174 0114 23800700 		sb	zero,0(a5)
 175              	.LVL11:
 176              	.L7:
 177              	.LBE21:
 178              	.LBE20:
  31:src/main.cpp  ****     while (IO::outputBuffer.getCount() > 0){
 179              		.loc 1 31 5 is_stmt 1
 180              		.loc 1 31 40
 181              	.LBB22:
 182              	.LBB23:
 183              		.file 4 "src/../h/buffer.hpp"
   1:src/../h/buffer.hpp **** //
GAS LISTING /tmp/ccpt8PZU.s 			page 7


   2:src/../h/buffer.hpp **** // Created by os on 6/25/24.
   3:src/../h/buffer.hpp **** //
   4:src/../h/buffer.hpp **** 
   5:src/../h/buffer.hpp **** #ifndef PROJECT_BASE_V1_1_BUFFER_HPP
   6:src/../h/buffer.hpp **** #define PROJECT_BASE_V1_1_BUFFER_HPP
   7:src/../h/buffer.hpp **** #include "_sem.hpp"
   8:src/../h/buffer.hpp **** 
   9:src/../h/buffer.hpp **** class Buffer{
  10:src/../h/buffer.hpp **** public:
  11:src/../h/buffer.hpp ****     Buffer();
  12:src/../h/buffer.hpp ****     void putc(char c);
  13:src/../h/buffer.hpp ****     char getc();
  14:src/../h/buffer.hpp ****     uint64 getCount(){return count;}
 184              		.loc 4 14 23
 185              		.loc 4 14 30 is_stmt 0
 186 0118 97070000 		la	a5,_ZN2IO12outputBufferE
 186      83B70700 
 187 0120 83B78711 		ld	a5,280(a5)
 188              	.LVL12:
 189              	.LBE23:
 190              	.LBE22:
 191              		.loc 1 31 40
 192 0124 63860700 		beqz	a5,.L6
  32:src/main.cpp  ****         asm volatile("ecall");
 193              		.loc 1 32 9 is_stmt 1
 194              		.loc 1 32 30 is_stmt 0
 195              	#APP
 196              	# 32 "src/main.cpp" 1
  33              	    }
  31:src/main.cpp  ****     while (IO::outputBuffer.getCount() > 0){
 197              		ecall
 198              	# 0 "" 2
 199              		.loc 1 31 5
 200              	#NO_APP
 201 012c 6FF0DFFE 		j	.L7
 202              	.L6:
  34:src/main.cpp  ****     _thread::running->setFinished();
 203              		.loc 1 34 5 is_stmt 1
 204              		.loc 1 34 34 is_stmt 0
 205 0130 97070000 		la	a5,_ZN7_thread7runningE
 205      83B70700 
 206 0138 83B70700 		ld	a5,0(a5)
 207              	.LVL13:
 208              	.LBB24:
 209              	.LBB25:
 210              		.file 5 "src/../h/_thread.hpp"
   1:src/../h/_thread.hpp **** //
   2:src/../h/_thread.hpp **** // Created by os on 5/20/24.
   3:src/../h/_thread.hpp **** //
   4:src/../h/_thread.hpp **** 
   5:src/../h/_thread.hpp **** #ifndef PROJECT_BASE_V1_1__THREAD_HPP
   6:src/../h/_thread.hpp **** #define PROJECT_BASE_V1_1__THREAD_HPP
   7:src/../h/_thread.hpp **** #include "RISCV.hpp"
   8:src/../h/_thread.hpp **** #include "../lib/hw.h"
   9:src/../h/_thread.hpp **** #include "MemAlloc.hpp"
  10:src/../h/_thread.hpp **** #include "Scheduler.hpp"
  11:src/../h/_thread.hpp **** 
GAS LISTING /tmp/ccpt8PZU.s 			page 8


  12:src/../h/_thread.hpp **** int main(int, char**);
  13:src/../h/_thread.hpp **** 
  14:src/../h/_thread.hpp **** void userMain(void*);
  15:src/../h/_thread.hpp **** 
  16:src/../h/_thread.hpp **** class _thread{
  17:src/../h/_thread.hpp **** public:
  18:src/../h/_thread.hpp ****     using Func = void(*)(void*);
  19:src/../h/_thread.hpp ****     friend class RISCV;
  20:src/../h/_thread.hpp ****     struct Context{
  21:src/../h/_thread.hpp ****         uint64 ra;
  22:src/../h/_thread.hpp ****         uint64 sp;
  23:src/../h/_thread.hpp ****     };
  24:src/../h/_thread.hpp ****     Func body;
  25:src/../h/_thread.hpp ****     Context context;
  26:src/../h/_thread.hpp ****     void* args;
  27:src/../h/_thread.hpp ****     bool blocked;
  28:src/../h/_thread.hpp ****     bool finished;
  29:src/../h/_thread.hpp ****     bool timedWait;
  30:src/../h/_thread.hpp ****     bool isAdmin;
  31:src/../h/_thread.hpp ****     bool sleepWait = false;
  32:src/../h/_thread.hpp ****     uint64 timeSlice;
  33:src/../h/_thread.hpp ****     uint64* stack;
  34:src/../h/_thread.hpp ****     _sem* mySem = nullptr;
  35:src/../h/_thread.hpp **** 
  36:src/../h/_thread.hpp **** 
  37:src/../h/_thread.hpp **** public:
  38:src/../h/_thread.hpp **** 
  39:src/../h/_thread.hpp ****     static void outputThread(void *);
  40:src/../h/_thread.hpp **** 
  41:src/../h/_thread.hpp ****     static void wrapper();
  42:src/../h/_thread.hpp **** 
  43:src/../h/_thread.hpp ****     static _thread* running;
  44:src/../h/_thread.hpp ****     static uint64 runningTimeSlice;
  45:src/../h/_thread.hpp **** 
  46:src/../h/_thread.hpp **** 
  47:src/../h/_thread.hpp ****     _thread(Func body, void* args, uint64 mra);
  48:src/../h/_thread.hpp ****     bool isBlocked(){return blocked;}
  49:src/../h/_thread.hpp ****     bool isTimedWait(){return timedWait;}
  50:src/../h/_thread.hpp ****     bool isFinished(){return finished;}
  51:src/../h/_thread.hpp ****     bool isSleeping(){return sleepWait;}
  52:src/../h/_thread.hpp **** 
  53:src/../h/_thread.hpp **** 
  54:src/../h/_thread.hpp ****     static _thread* createThread(Func func, void* args, uint64 mra);
  55:src/../h/_thread.hpp **** 
  56:src/../h/_thread.hpp ****     static void switchContext(Context* old, Context* newC);
  57:src/../h/_thread.hpp **** 
  58:src/../h/_thread.hpp ****     static void dispatch();
  59:src/../h/_thread.hpp **** 
  60:src/../h/_thread.hpp **** 
  61:src/../h/_thread.hpp ****     void* operator new(size_t size){
  62:src/../h/_thread.hpp ****         return MemoryAllocator::mem_alloc(size);
  63:src/../h/_thread.hpp ****     }
  64:src/../h/_thread.hpp **** 
  65:src/../h/_thread.hpp **** 
  66:src/../h/_thread.hpp ****     void operator delete (void* ptr){
  67:src/../h/_thread.hpp ****         MemoryAllocator::mem_free(ptr);
  68:src/../h/_thread.hpp ****     }
GAS LISTING /tmp/ccpt8PZU.s 			page 9


  69:src/../h/_thread.hpp **** 
  70:src/../h/_thread.hpp **** 
  71:src/../h/_thread.hpp ****     void setBlocked(bool blck){blocked = blck;}
  72:src/../h/_thread.hpp ****     void setTimedWait(bool tmdw){timedWait = tmdw;}
  73:src/../h/_thread.hpp ****     void setSleepWait(bool sleep){sleepWait = sleep;}
  74:src/../h/_thread.hpp ****     void setFinished(){finished = true;}
 211              		.loc 5 74 24 is_stmt 1
 212              		.loc 5 74 33 is_stmt 0
 213 013c 13071000 		li	a4,1
 214 0140 A380E702 		sb	a4,33(a5)
 215              	.LVL14:
 216              	.LBE25:
 217              	.LBE24:
  35:src/main.cpp  ****     asm volatile("mv ra, %0"::"r"(mra));
 218              		.loc 1 35 5 is_stmt 1
 219              		.loc 1 35 40 is_stmt 0
 220              	#APP
 221              	# 35 "src/main.cpp" 1
  36              	    return 0;
 222              		mv ra, s1
 223              	# 0 "" 2
 224              		.loc 1 36 5 is_stmt 1
  37:src/main.cpp  **** }...
 225              		.loc 1 37 1 is_stmt 0
 226              	#NO_APP
 227 0148 13050000 		li	a0,0
 228 014c 83308102 		ld	ra,40(sp)
 229              		.cfi_restore 1
 230 0150 03340102 		ld	s0,32(sp)
 231              		.cfi_restore 8
 232              		.cfi_def_cfa 2, 48
 233 0154 83348101 		ld	s1,24(sp)
 234              		.cfi_restore 9
 235              	.LVL15:
 236 0158 13010103 		addi	sp,sp,48
 237              		.cfi_def_cfa_offset 0
 238 015c 67800000 		jr	ra
 239              		.cfi_endproc
 240              	.LFE55:
 242              		.globl	finished
 243              		.bss
 244              		.set	.LANCHOR0,. + 0
 247              	finished:
 248 0000 00       		.zero	1
 249              		.text
 250              	.Letext0:
 251              		.file 6 "src/../h/../lib/hw.h"
 252              		.file 7 "src/../h/ThreadList.hpp"
 253              		.file 8 "src/../h/syscall_c.h"
 254              		.file 9 "src/../h/_sem.hpp"
 255              		.file 10 "src/../h/SleepingList.hpp"
 256              		.file 11 "src/../h/IO.hpp"
GAS LISTING /tmp/ccpt8PZU.s 			page 10


DEFINED SYMBOLS
                            *ABS*:0000000000000000 main.cpp
     /tmp/ccpt8PZU.s:9      .text:0000000000000000 _Z11userWrapeprPv
     /tmp/ccpt8PZU.s:13     .text:0000000000000000 .L0 
     /tmp/ccpt8PZU.s:14     .text:0000000000000000 .L0 
     /tmp/ccpt8PZU.s:15     .text:0000000000000004 .L0 
     /tmp/ccpt8PZU.s:18     .text:000000000000000c .L0 
     /tmp/ccpt8PZU.s:19     .text:000000000000000c .L0 
     /tmp/ccpt8PZU.s:21     .text:0000000000000010 .L0 
     /tmp/ccpt8PZU.s:23     .text:0000000000000010 .L0 
     /tmp/ccpt8PZU.s:24     .text:0000000000000010 .L0 
     /tmp/ccpt8PZU.s:27     .text:0000000000000018 .L0 
     /tmp/ccpt8PZU.s:28     .text:0000000000000018 .L0 
     /tmp/ccpt8PZU.s:31     .text:0000000000000024 .L0 
     /tmp/ccpt8PZU.s:32     .text:0000000000000028 .L0 
     /tmp/ccpt8PZU.s:34     .text:000000000000002c .L0 
     /tmp/ccpt8PZU.s:35     .text:000000000000002c .L0 
     /tmp/ccpt8PZU.s:37     .text:0000000000000030 .L0 
     /tmp/ccpt8PZU.s:39     .text:0000000000000034 .L0 
     /tmp/ccpt8PZU.s:45     .text:0000000000000034 main
     /tmp/ccpt8PZU.s:48     .text:0000000000000034 .L0 
     /tmp/ccpt8PZU.s:50     .text:0000000000000034 .L0 
     /tmp/ccpt8PZU.s:51     .text:0000000000000038 .L0 
     /tmp/ccpt8PZU.s:55     .text:0000000000000044 .L0 
     /tmp/ccpt8PZU.s:56     .text:0000000000000044 .L0 
     /tmp/ccpt8PZU.s:57     .text:0000000000000044 .L0 
     /tmp/ccpt8PZU.s:59     .text:0000000000000048 .L0 
     /tmp/ccpt8PZU.s:61     .text:0000000000000048 .L0 
     /tmp/ccpt8PZU.s:62     .text:0000000000000048 .L0 
        src/main.cpp:15     .text:0000000000000048 .L0 
     /tmp/ccpt8PZU.s:69     .text:000000000000004c .L0 
     /tmp/ccpt8PZU.s:71     .text:000000000000004c .L0 
     /tmp/ccpt8PZU.s:77     .text:0000000000000054 .L0 
  src/../h/RISCV.hpp:77     .text:0000000000000054 .L0 
     /tmp/ccpt8PZU.s:90     .text:0000000000000058 .L0 
     /tmp/ccpt8PZU.s:91     .text:0000000000000058 .L0 
     /tmp/ccpt8PZU.s:92     .text:0000000000000058 .L0 
     /tmp/ccpt8PZU.s:97     .text:0000000000000070 .L0 
     /tmp/ccpt8PZU.s:98     .text:0000000000000070 .L0 
     /tmp/ccpt8PZU.s:101    .text:000000000000007c .L0 
     /tmp/ccpt8PZU.s:102    .text:000000000000007c .L0 
     /tmp/ccpt8PZU.s:104    .text:0000000000000080 .L0 
     /tmp/ccpt8PZU.s:105    .text:0000000000000080 .L0 
     /tmp/ccpt8PZU.s:108    .text:000000000000008c .L0 
     /tmp/ccpt8PZU.s:110    .text:0000000000000090 .L0 
     /tmp/ccpt8PZU.s:112    .text:0000000000000094 .L0 
     /tmp/ccpt8PZU.s:114    .text:0000000000000098 .L0 
     /tmp/ccpt8PZU.s:116    .text:000000000000009c .L0 
     /tmp/ccpt8PZU.s:120    .text:00000000000000a0 .L0 
     /tmp/ccpt8PZU.s:121    .text:00000000000000a0 .L0 
     /tmp/ccpt8PZU.s:124    .text:00000000000000a8 .L0 
     /tmp/ccpt8PZU.s:125    .text:00000000000000a8 .L0 
     /tmp/ccpt8PZU.s:126    .text:00000000000000a8 .L0 
     /tmp/ccpt8PZU.s:127    .text:00000000000000a8 .L0 
     /tmp/ccpt8PZU.s:133    .text:00000000000000bc .L0 
     /tmp/ccpt8PZU.s:134    .text:00000000000000bc .L0 
     /tmp/ccpt8PZU.s:135    .text:00000000000000bc .L0 
GAS LISTING /tmp/ccpt8PZU.s 			page 11


     /tmp/ccpt8PZU.s:143    .text:00000000000000d4 .L0 
     /tmp/ccpt8PZU.s:144    .text:00000000000000d4 .L0 
     /tmp/ccpt8PZU.s:145    .text:00000000000000d4 .L0 
     /tmp/ccpt8PZU.s:153    .text:00000000000000e4 .L0 
     /tmp/ccpt8PZU.s:154    .text:00000000000000e4 .L0 
     /tmp/ccpt8PZU.s:157    .text:00000000000000f0 .L0 
     /tmp/ccpt8PZU.s:158    .text:00000000000000f0 .L0 
     /tmp/ccpt8PZU.s:163    .text:00000000000000fc .L0 
     /tmp/ccpt8PZU.s:164    .text:00000000000000fc .L0 
     /tmp/ccpt8PZU.s:171    .text:000000000000010c .L0 
     /tmp/ccpt8PZU.s:172    .text:000000000000010c .L0 
     /tmp/ccpt8PZU.s:173    .text:000000000000010c .L0 
     /tmp/ccpt8PZU.s:180    .text:0000000000000118 .L0 
     /tmp/ccpt8PZU.s:184    .text:0000000000000118 .L0 
     /tmp/ccpt8PZU.s:185    .text:0000000000000118 .L0 
     /tmp/ccpt8PZU.s:186    .text:0000000000000118 .L0 
     /tmp/ccpt8PZU.s:192    .text:0000000000000124 .L0 
     /tmp/ccpt8PZU.s:194    .text:0000000000000128 .L0 
        src/main.cpp:32     .text:0000000000000128 .L0 
     /tmp/ccpt8PZU.s:201    .text:000000000000012c .L0 
     /tmp/ccpt8PZU.s:204    .text:0000000000000130 .L0 
     /tmp/ccpt8PZU.s:205    .text:0000000000000130 .L0 
     /tmp/ccpt8PZU.s:212    .text:000000000000013c .L0 
     /tmp/ccpt8PZU.s:213    .text:000000000000013c .L0 
     /tmp/ccpt8PZU.s:219    .text:0000000000000144 .L0 
        src/main.cpp:35     .text:0000000000000144 .L0 
     /tmp/ccpt8PZU.s:225    .text:0000000000000148 .L0 
     /tmp/ccpt8PZU.s:227    .text:0000000000000148 .L0 
     /tmp/ccpt8PZU.s:229    .text:0000000000000150 .L0 
     /tmp/ccpt8PZU.s:231    .text:0000000000000154 .L0 
     /tmp/ccpt8PZU.s:232    .text:0000000000000154 .L0 
     /tmp/ccpt8PZU.s:234    .text:0000000000000158 .L0 
     /tmp/ccpt8PZU.s:237    .text:000000000000015c .L0 
     /tmp/ccpt8PZU.s:239    .text:0000000000000160 .L0 
     /tmp/ccpt8PZU.s:247    .bss:0000000000000000 finished
     /tmp/ccpt8PZU.s:244    .bss:0000000000000000 .LANCHOR0
     /tmp/ccpt8PZU.s:257    .text:0000000000000160 .L0 
     /tmp/ccpt8PZU.s:29     .text:000000000000001c .L0 
     /tmp/ccpt8PZU.s:71     .text:000000000000004c .L0 
     /tmp/ccpt8PZU.s:92     .text:0000000000000058 .L0 
     /tmp/ccpt8PZU.s:94     .text:0000000000000064 .L0 
     /tmp/ccpt8PZU.s:98     .text:0000000000000070 .L0 
     /tmp/ccpt8PZU.s:105    .text:0000000000000080 .L0 
     /tmp/ccpt8PZU.s:136    .text:00000000000000c0 .L0 
     /tmp/ccpt8PZU.s:145    .text:00000000000000d4 .L0 
     /tmp/ccpt8PZU.s:154    .text:00000000000000e4 .L0 
     /tmp/ccpt8PZU.s:164    .text:00000000000000fc .L0 
     /tmp/ccpt8PZU.s:173    .text:000000000000010c .L0 
     /tmp/ccpt8PZU.s:186    .text:0000000000000118 .L0 
     /tmp/ccpt8PZU.s:205    .text:0000000000000130 .L0 
     /tmp/ccpt8PZU.s:161    .text:00000000000000fc .L4
     /tmp/ccpt8PZU.s:149    .text:00000000000000e4 .L5
     /tmp/ccpt8PZU.s:202    .text:0000000000000130 .L6
     /tmp/ccpt8PZU.s:176    .text:0000000000000118 .L7
     /tmp/ccpt8PZU.s:2064   .debug_abbrev:0000000000000000 .Ldebug_abbrev0
     /tmp/ccpt8PZU.s:3649   .debug_str:0000000000000a02 .LASF210
     /tmp/ccpt8PZU.s:3417   .debug_str:00000000000002f4 .LASF211
GAS LISTING /tmp/ccpt8PZU.s 			page 12


     /tmp/ccpt8PZU.s:3537   .debug_str:000000000000069e .LASF212
     /tmp/ccpt8PZU.s:5      .text:0000000000000000 .Ltext0
     /tmp/ccpt8PZU.s:250    .text:0000000000000160 .Letext0
     /tmp/ccpt8PZU.s:3315   .debug_line:0000000000000000 .Ldebug_line0
     /tmp/ccpt8PZU.s:3449   .debug_str:00000000000003cf .LASF0
     /tmp/ccpt8PZU.s:3471   .debug_str:000000000000046d .LASF1
     /tmp/ccpt8PZU.s:3573   .debug_str:00000000000007f7 .LASF2
     /tmp/ccpt8PZU.s:3581   .debug_str:0000000000000836 .LASF4
     /tmp/ccpt8PZU.s:3459   .debug_str:0000000000000415 .LASF3
     /tmp/ccpt8PZU.s:3325   .debug_str:0000000000000038 .LASF5
     /tmp/ccpt8PZU.s:3551   .debug_str:0000000000000730 .LASF6
     /tmp/ccpt8PZU.s:3539   .debug_str:00000000000006be .LASF7
     /tmp/ccpt8PZU.s:3463   .debug_str:0000000000000439 .LASF8
     /tmp/ccpt8PZU.s:3425   .debug_str:0000000000000334 .LASF9
     /tmp/ccpt8PZU.s:3429   .debug_str:0000000000000360 .LASF10
     /tmp/ccpt8PZU.s:3365   .debug_str:0000000000000178 .LASF11
     /tmp/ccpt8PZU.s:3415   .debug_str:00000000000002e5 .LASF12
     /tmp/ccpt8PZU.s:3383   .debug_str:00000000000001f0 .LASF13
     /tmp/ccpt8PZU.s:3363   .debug_str:0000000000000168 .LASF14
     /tmp/ccpt8PZU.s:3625   .debug_str:000000000000099a .LASF15
     /tmp/ccpt8PZU.s:3403   .debug_str:0000000000000291 .LASF16
     /tmp/ccpt8PZU.s:3609   .debug_str:000000000000092b .LASF17
     /tmp/ccpt8PZU.s:3615   .debug_str:000000000000096c .LASF28
     /tmp/ccpt8PZU.s:3367   .debug_str:0000000000000187 .LASF18
     /tmp/ccpt8PZU.s:3469   .debug_str:0000000000000468 .LASF19
     /tmp/ccpt8PZU.s:3533   .debug_str:0000000000000676 .LASF26
     /tmp/ccpt8PZU.s:3631   .debug_str:00000000000009b7 .LASF20
     /tmp/ccpt8PZU.s:3669   .debug_str:0000000000000b36 .LASF21
     /tmp/ccpt8PZU.s:3503   .debug_str:0000000000000590 .LASF22
     /tmp/ccpt8PZU.s:3329   .debug_str:000000000000004a .LASF24
     /tmp/ccpt8PZU.s:3635   .debug_str:00000000000009ca .LASF23
     /tmp/ccpt8PZU.s:3505   .debug_str:000000000000059a .LASF25
     /tmp/ccpt8PZU.s:3589   .debug_str:000000000000087e .LASF31
     /tmp/ccpt8PZU.s:3485   .debug_str:0000000000000509 .LASF32
     /tmp/ccpt8PZU.s:3343   .debug_str:00000000000000ae .LASF62
     /tmp/ccpt8PZU.s:3739   .debug_str:0000000000000d7a .LASF64
     /tmp/ccpt8PZU.s:3519   .debug_str:000000000000061e .LASF27
     /tmp/ccpt8PZU.s:3685   .debug_str:0000000000000bba .LASF29
     /tmp/ccpt8PZU.s:3455   .debug_str:0000000000000404 .LASF30
     /tmp/ccpt8PZU.s:3593   .debug_str:00000000000008b0 .LASF33
     /tmp/ccpt8PZU.s:3743   .debug_str:0000000000000dad .LASF34
     /tmp/ccpt8PZU.s:3599   .debug_str:00000000000008e4 .LASF35
     /tmp/ccpt8PZU.s:3349   .debug_str:00000000000000e4 .LASF36
     /tmp/ccpt8PZU.s:3587   .debug_str:0000000000000865 .LASF37
     /tmp/ccpt8PZU.s:3323   .debug_str:0000000000000028 .LASF84
     /tmp/ccpt8PZU.s:3475   .debug_str:0000000000000492 .LASF129
     /tmp/ccpt8PZU.s:3607   .debug_str:0000000000000918 .LASF131
     /tmp/ccpt8PZU.s:3555   .debug_str:0000000000000746 .LASF132
     /tmp/ccpt8PZU.s:3619   .debug_str:0000000000000983 .LASF38
     /tmp/ccpt8PZU.s:3515   .debug_str:0000000000000603 .LASF39
     /tmp/ccpt8PZU.s:3405   .debug_str:00000000000002a7 .LASF40
     /tmp/ccpt8PZU.s:3591   .debug_str:000000000000088e .LASF41
     /tmp/ccpt8PZU.s:3689   .debug_str:0000000000000bdb .LASF42
     /tmp/ccpt8PZU.s:3527   .debug_str:000000000000064a .LASF44
     /tmp/ccpt8PZU.s:3723   .debug_str:0000000000000d13 .LASF43
     /tmp/ccpt8PZU.s:3317   .debug_str:0000000000000000 .LASF45
     /tmp/ccpt8PZU.s:3321   .debug_str:0000000000000021 .LASF46
GAS LISTING /tmp/ccpt8PZU.s 			page 13


     /tmp/ccpt8PZU.s:3547   .debug_str:0000000000000702 .LASF47
     /tmp/ccpt8PZU.s:3339   .debug_str:000000000000009d .LASF48
     /tmp/ccpt8PZU.s:3371   .debug_str:0000000000000199 .LASF213
     /tmp/ccpt8PZU.s:3431   .debug_str:000000000000036e .LASF214
     /tmp/ccpt8PZU.s:3393   .debug_str:0000000000000264 .LASF49
     /tmp/ccpt8PZU.s:3673   .debug_str:0000000000000b4a .LASF50
     /tmp/ccpt8PZU.s:3737   .debug_str:0000000000000d75 .LASF51
     /tmp/ccpt8PZU.s:3521   .debug_str:0000000000000629 .LASF52
     /tmp/ccpt8PZU.s:3633   .debug_str:00000000000009c1 .LASF53
     /tmp/ccpt8PZU.s:3337   .debug_str:0000000000000093 .LASF54
     /tmp/ccpt8PZU.s:3629   .debug_str:00000000000009af .LASF55
     /tmp/ccpt8PZU.s:3489   .debug_str:000000000000054e .LASF56
     /tmp/ccpt8PZU.s:3661   .debug_str:0000000000000af9 .LASF57
     /tmp/ccpt8PZU.s:3603   .debug_str:0000000000000906 .LASF58
     /tmp/ccpt8PZU.s:3375   .debug_str:00000000000001a6 .LASF59
     /tmp/ccpt8PZU.s:3549   .debug_str:0000000000000723 .LASF60
     /tmp/ccpt8PZU.s:3729   .debug_str:0000000000000d3b .LASF61
     /tmp/ccpt8PZU.s:3693   .debug_str:0000000000000bf8 .LASF63
     /tmp/ccpt8PZU.s:3707   .debug_str:0000000000000c50 .LASF65
     /tmp/ccpt8PZU.s:3645   .debug_str:00000000000009f5 .LASF66
     /tmp/ccpt8PZU.s:3353   .debug_str:0000000000000108 .LASF67
     /tmp/ccpt8PZU.s:3725   .debug_str:0000000000000d1c .LASF68
     /tmp/ccpt8PZU.s:3575   .debug_str:0000000000000805 .LASF69
     /tmp/ccpt8PZU.s:3583   .debug_str:000000000000083d .LASF70
     /tmp/ccpt8PZU.s:3355   .debug_str:0000000000000119 .LASF71
     /tmp/ccpt8PZU.s:3699   .debug_str:0000000000000c0c .LASF72
     /tmp/ccpt8PZU.s:3637   .debug_str:00000000000009d3 .LASF73
     /tmp/ccpt8PZU.s:3387   .debug_str:0000000000000218 .LASF74
     /tmp/ccpt8PZU.s:3509   .debug_str:00000000000005e0 .LASF75
     /tmp/ccpt8PZU.s:3681   .debug_str:0000000000000b8c .LASF76
     /tmp/ccpt8PZU.s:3623   .debug_str:000000000000098d .LASF77
     /tmp/ccpt8PZU.s:3507   .debug_str:00000000000005bb .LASF78
     /tmp/ccpt8PZU.s:3433   .debug_str:0000000000000373 .LASF79
     /tmp/ccpt8PZU.s:3483   .debug_str:00000000000004dd .LASF80
     /tmp/ccpt8PZU.s:3395   .debug_str:0000000000000269 .LASF81
     /tmp/ccpt8PZU.s:3391   .debug_str:000000000000024d .LASF82
     /tmp/ccpt8PZU.s:3565   .debug_str:00000000000007b7 .LASF83
     /tmp/ccpt8PZU.s:3651   .debug_str:0000000000000ac6 .LASF85
     /tmp/ccpt8PZU.s:3641   .debug_str:00000000000009e5 .LASF86
     /tmp/ccpt8PZU.s:3577   .debug_str:000000000000080f .LASF87
     /tmp/ccpt8PZU.s:3495   .debug_str:0000000000000563 .LASF88
     /tmp/ccpt8PZU.s:3687   .debug_str:0000000000000bbf .LASF89
     /tmp/ccpt8PZU.s:3665   .debug_str:0000000000000b13 .LASF90
     /tmp/ccpt8PZU.s:3563   .debug_str:000000000000079b .LASF91
     /tmp/ccpt8PZU.s:3347   .debug_str:00000000000000d8 .LASF92
     /tmp/ccpt8PZU.s:3713   .debug_str:0000000000000c95 .LASF93
     /tmp/ccpt8PZU.s:3627   .debug_str:00000000000009a6 .LASF94
     /tmp/ccpt8PZU.s:3467   .debug_str:0000000000000458 .LASF95
     /tmp/ccpt8PZU.s:3701   .debug_str:0000000000000c27 .LASF96
     /tmp/ccpt8PZU.s:3727   .debug_str:0000000000000d35 .LASF97
     /tmp/ccpt8PZU.s:3621   .debug_str:0000000000000988 .LASF98
     /tmp/ccpt8PZU.s:3443   .debug_str:00000000000003b9 .LASF99
     /tmp/ccpt8PZU.s:3579   .debug_str:0000000000000829 .LASF100
     /tmp/ccpt8PZU.s:3447   .debug_str:00000000000003c9 .LASF101
     /tmp/ccpt8PZU.s:3409   .debug_str:00000000000002bf .LASF102
     /tmp/ccpt8PZU.s:3735   .debug_str:0000000000000d6d .LASF103
     /tmp/ccpt8PZU.s:3705   .debug_str:0000000000000c3d .LASF104
GAS LISTING /tmp/ccpt8PZU.s 			page 14


     /tmp/ccpt8PZU.s:3639   .debug_str:00000000000009de .LASF105
     /tmp/ccpt8PZU.s:3613   .debug_str:000000000000095a .LASF106
     /tmp/ccpt8PZU.s:3397   .debug_str:0000000000000272 .LASF107
     /tmp/ccpt8PZU.s:3511   .debug_str:00000000000005eb .LASF108
     /tmp/ccpt8PZU.s:3691   .debug_str:0000000000000be3 .LASF109
     /tmp/ccpt8PZU.s:3437   .debug_str:0000000000000392 .LASF110
     /tmp/ccpt8PZU.s:3345   .debug_str:00000000000000b3 .LASF111
     /tmp/ccpt8PZU.s:3335   .debug_str:000000000000008a .LASF112
     /tmp/ccpt8PZU.s:3525   .debug_str:0000000000000636 .LASF113
     /tmp/ccpt8PZU.s:3543   .debug_str:00000000000006dd .LASF114
     /tmp/ccpt8PZU.s:3671   .debug_str:0000000000000b40 .LASF115
     /tmp/ccpt8PZU.s:3741   .debug_str:0000000000000d96 .LASF116
     /tmp/ccpt8PZU.s:3751   .debug_str:0000000000000e0b .LASF117
     /tmp/ccpt8PZU.s:3411   .debug_str:00000000000002d0 .LASF118
     /tmp/ccpt8PZU.s:3675   .debug_str:0000000000000b52 .LASF119
     /tmp/ccpt8PZU.s:3595   .debug_str:00000000000008d1 .LASF120
     /tmp/ccpt8PZU.s:3585   .debug_str:0000000000000855 .LASF121
     /tmp/ccpt8PZU.s:3491   .debug_str:0000000000000558 .LASF122
     /tmp/ccpt8PZU.s:3617   .debug_str:0000000000000976 .LASF123
     /tmp/ccpt8PZU.s:3567   .debug_str:00000000000007c7 .LASF124
     /tmp/ccpt8PZU.s:3659   .debug_str:0000000000000aec .LASF125
     /tmp/ccpt8PZU.s:3745   .debug_str:0000000000000dba .LASF126
     /tmp/ccpt8PZU.s:3389   .debug_str:0000000000000232 .LASF127
     /tmp/ccpt8PZU.s:3749   .debug_str:0000000000000df0 .LASF128
     /tmp/ccpt8PZU.s:3719   .debug_str:0000000000000cf1 .LASF130
     /tmp/ccpt8PZU.s:3427   .debug_str:0000000000000344 .LASF133
     /tmp/ccpt8PZU.s:3451   .debug_str:00000000000003dc .LASF134
     /tmp/ccpt8PZU.s:3361   .debug_str:000000000000014f .LASF135
     /tmp/ccpt8PZU.s:3331   .debug_str:000000000000006b .LASF215
     /tmp/ccpt8PZU.s:3341   .debug_str:00000000000000a5 .LASF136
     /tmp/ccpt8PZU.s:3421   .debug_str:0000000000000306 .LASF137
     /tmp/ccpt8PZU.s:3753   .debug_str:0000000000000e18 .LASF138
     /tmp/ccpt8PZU.s:3359   .debug_str:0000000000000131 .LASF139
     /tmp/ccpt8PZU.s:3541   .debug_str:00000000000006d1 .LASF140
     /tmp/ccpt8PZU.s:3571   .debug_str:00000000000007d6 .LASF141
     /tmp/ccpt8PZU.s:3377   .debug_str:00000000000001ac .LASF216
     /tmp/ccpt8PZU.s:3697   .debug_str:0000000000000c05 .LASF142
     /tmp/ccpt8PZU.s:3731   .debug_str:0000000000000d58 .LASF143
     /tmp/ccpt8PZU.s:3497   .debug_str:0000000000000570 .LASF144
     /tmp/ccpt8PZU.s:3473   .debug_str:0000000000000480 .LASF145
     /tmp/ccpt8PZU.s:3373   .debug_str:00000000000001a1 .LASF146
     /tmp/ccpt8PZU.s:3461   .debug_str:0000000000000427 .LASF147
     /tmp/ccpt8PZU.s:3657   .debug_str:0000000000000ae3 .LASF148
     /tmp/ccpt8PZU.s:3517   .debug_str:0000000000000608 .LASF149
     /tmp/ccpt8PZU.s:3479   .debug_str:00000000000004bb .LASF150
     /tmp/ccpt8PZU.s:3499   .debug_str:0000000000000575 .LASF151
     /tmp/ccpt8PZU.s:3401   .debug_str:0000000000000289 .LASF152
     /tmp/ccpt8PZU.s:3655   .debug_str:0000000000000adc .LASF153
     /tmp/ccpt8PZU.s:3319   .debug_str:000000000000001b .LASF154
     /tmp/ccpt8PZU.s:3643   .debug_str:00000000000009f0 .LASF155
     /tmp/ccpt8PZU.s:3457   .debug_str:0000000000000409 .LASF156
     /tmp/ccpt8PZU.s:3703   .debug_str:0000000000000c30 .LASF157
     /tmp/ccpt8PZU.s:3413   .debug_str:00000000000002de .LASF158
     /tmp/ccpt8PZU.s:3663   .debug_str:0000000000000b03 .LASF159
     /tmp/ccpt8PZU.s:3569   .debug_str:00000000000007ce .LASF160
     /tmp/ccpt8PZU.s:3423   .debug_str:0000000000000323 .LASF161
     /tmp/ccpt8PZU.s:3333   .debug_str:0000000000000084 .LASF162
GAS LISTING /tmp/ccpt8PZU.s 			page 15


     /tmp/ccpt8PZU.s:3441   .debug_str:00000000000003aa .LASF163
     /tmp/ccpt8PZU.s:3733   .debug_str:0000000000000d67 .LASF175
     /tmp/ccpt8PZU.s:3553   .debug_str:0000000000000737 .LASF177
     /tmp/ccpt8PZU.s:3721   .debug_str:0000000000000d0d .LASF164
     /tmp/ccpt8PZU.s:3601   .debug_str:00000000000008fd .LASF165
     /tmp/ccpt8PZU.s:3529   .debug_str:0000000000000664 .LASF166
     /tmp/ccpt8PZU.s:3677   .debug_str:0000000000000b62 .LASF167
     /tmp/ccpt8PZU.s:3351   .debug_str:00000000000000f4 .LASF168
     /tmp/ccpt8PZU.s:3327   .debug_str:000000000000003f .LASF169
     /tmp/ccpt8PZU.s:3385   .debug_str:0000000000000200 .LASF170
     /tmp/ccpt8PZU.s:3407   .debug_str:00000000000002af .LASF171
     /tmp/ccpt8PZU.s:3557   .debug_str:0000000000000760 .LASF172
     /tmp/ccpt8PZU.s:3439   .debug_str:00000000000003a3 .LASF173
     /tmp/ccpt8PZU.s:3487   .debug_str:000000000000053b .LASF174
     /tmp/ccpt8PZU.s:3445   .debug_str:00000000000003bf .LASF176
     /tmp/ccpt8PZU.s:3667   .debug_str:0000000000000b20 .LASF178
     /tmp/ccpt8PZU.s:3605   .debug_str:000000000000090c .LASF179
     /tmp/ccpt8PZU.s:3611   .debug_str:0000000000000941 .LASF180
     /tmp/ccpt8PZU.s:3531   .debug_str:000000000000066b .LASF181
     /tmp/ccpt8PZU.s:3535   .debug_str:0000000000000686 .LASF182
     /tmp/ccpt8PZU.s:3561   .debug_str:000000000000078d .LASF183
     /tmp/ccpt8PZU.s:3381   .debug_str:00000000000001d5 .LASF184
     /tmp/ccpt8PZU.s:3369   .debug_str:000000000000018c .LASF185
     /tmp/ccpt8PZU.s:3711   .debug_str:0000000000000c7b .LASF186
     /tmp/ccpt8PZU.s:3513   .debug_str:00000000000005fb .LASF187
     /tmp/ccpt8PZU.s:3683   .debug_str:0000000000000ba6 .LASF188
     /tmp/ccpt8PZU.s:3493   .debug_str:000000000000055d .LASF189
     /tmp/ccpt8PZU.s:3453   .debug_str:00000000000003f2 .LASF190
     /tmp/ccpt8PZU.s:3477   .debug_str:00000000000004ac .LASF191
     /tmp/ccpt8PZU.s:3717   .debug_str:0000000000000cd5 .LASF192
     /tmp/ccpt8PZU.s:3481   .debug_str:00000000000004cd .LASF193
     /tmp/ccpt8PZU.s:3435   .debug_str:0000000000000381 .LASF194
     /tmp/ccpt8PZU.s:3545   .debug_str:00000000000006ed .LASF217
     /tmp/ccpt8PZU.s:3679   .debug_str:0000000000000b6a .LASF218
     /tmp/ccpt8PZU.s:3523   .debug_str:0000000000000631 .LASF195
     /tmp/ccpt8PZU.s:46     .text:0000000000000034 .LFB55
     /tmp/ccpt8PZU.s:240    .text:0000000000000160 .LFE55
     /tmp/ccpt8PZU.s:3653   .debug_str:0000000000000ad7 .LASF196
     /tmp/ccpt8PZU.s:3244   .debug_loc:0000000000000000 .LLST0
     /tmp/ccpt8PZU.s:3695   .debug_str:0000000000000c00 .LASF197
     /tmp/ccpt8PZU.s:3258   .debug_loc:0000000000000039 .LLST1
     /tmp/ccpt8PZU.s:3272   .debug_loc:0000000000000072 .LLST2
     /tmp/ccpt8PZU.s:3465   .debug_str:000000000000044c .LASF198
     /tmp/ccpt8PZU.s:73     .text:0000000000000054 .LBB14
     /tmp/ccpt8PZU.s:85     .text:0000000000000058 .LBE14
     /tmp/ccpt8PZU.s:87     .text:0000000000000058 .LBB16
     /tmp/ccpt8PZU.s:118    .text:00000000000000a0 .LBE16
     /tmp/ccpt8PZU.s:141    .text:00000000000000d4 .LBB18
     /tmp/ccpt8PZU.s:151    .text:00000000000000e4 .LBE18
     /tmp/ccpt8PZU.s:3279   .debug_loc:0000000000000095 .LLST3
     /tmp/ccpt8PZU.s:169    .text:000000000000010c .LBB20
     /tmp/ccpt8PZU.s:178    .text:0000000000000118 .LBE20
     /tmp/ccpt8PZU.s:3287   .debug_loc:00000000000000b9 .LLST4
     /tmp/ccpt8PZU.s:181    .text:0000000000000118 .LBB22
     /tmp/ccpt8PZU.s:190    .text:0000000000000124 .LBE22
     /tmp/ccpt8PZU.s:208    .text:000000000000013c .LBB24
     /tmp/ccpt8PZU.s:217    .text:0000000000000144 .LBE24
GAS LISTING /tmp/ccpt8PZU.s 			page 16


     /tmp/ccpt8PZU.s:3295   .debug_loc:00000000000000dd .LLST5
     /tmp/ccpt8PZU.s:122    .text:00000000000000a8 .LVL5
     /tmp/ccpt8PZU.s:131    .text:00000000000000bc .LVL6
     /tmp/ccpt8PZU.s:139    .text:00000000000000d4 .LVL7
     /tmp/ccpt8PZU.s:159    .text:00000000000000f8 .LVL9
     /tmp/ccpt8PZU.s:3357   .debug_str:0000000000000125 .LASF199
     /tmp/ccpt8PZU.s:3399   .debug_str:0000000000000277 .LASF200
     /tmp/ccpt8PZU.s:10     .text:0000000000000000 .LFB54
     /tmp/ccpt8PZU.s:40     .text:0000000000000034 .LFE54
     /tmp/ccpt8PZU.s:25     .text:0000000000000018 .LVL0
     /tmp/ccpt8PZU.s:3647   .debug_str:00000000000009fd .LASF201
     /tmp/ccpt8PZU.s:3379   .debug_str:00000000000001cd .LASF202
     /tmp/ccpt8PZU.s:3419   .debug_str:0000000000000301 .LASF203
     /tmp/ccpt8PZU.s:3715   .debug_str:0000000000000cb0 .LASF204
     /tmp/ccpt8PZU.s:3747   .debug_str:0000000000000de2 .LASF206
     /tmp/ccpt8PZU.s:3709   .debug_str:0000000000000c66 .LASF205
     /tmp/ccpt8PZU.s:3559   .debug_str:000000000000077d .LASF207
     /tmp/ccpt8PZU.s:3501   .debug_str:0000000000000583 .LASF208
     /tmp/ccpt8PZU.s:3597   .debug_str:00000000000008db .LASF209
     /tmp/ccpt8PZU.s:49     .text:0000000000000034 .LVL1
     /tmp/ccpt8PZU.s:67     .text:000000000000004c .LVL2
     /tmp/ccpt8PZU.s:235    .text:0000000000000158 .LVL15
     /tmp/ccpt8PZU.s:148    .text:00000000000000e4 .LVL8
     /tmp/ccpt8PZU.s:168    .text:000000000000010c .LVL10
     /tmp/ccpt8PZU.s:175    .text:0000000000000118 .LVL11
     /tmp/ccpt8PZU.s:207    .text:000000000000013c .LVL13
     /tmp/ccpt8PZU.s:215    .text:0000000000000144 .LVL14
     /tmp/ccpt8PZU.s:258    .debug_info:0000000000000000 .Ldebug_info0

UNDEFINED SYMBOLS
_Z8userMainv
_ZN5RISCV14setVectorTableEv
HEAP_START_ADDR
_ZN15MemoryAllocator9freeStartE
_ZN15MemoryAllocator9usedStartE
HEAP_END_ADDR
_ZN2IO6initIOEv
_Z13thread_createPP7_threadPFvPvES2_
_ZN5RISCV8modeUserE
_Z15thread_dispatchv
_ZN5RISCV6isMainE
_ZN2IO12outputBufferE
_ZN7_thread7runningE
