GAS LISTING /tmp/cc2p5MvC.s 			page 1


   1              		.file	"MemAlloc.cpp"
   2              		.option pic
   3              		.option norelax
   4              		.text
   5              	.Ltext0:
   6              		.align	2
   7              		.globl	_Z10updateUsedP9BlockHeadS0_
   9              	_Z10updateUsedP9BlockHeadS0_:
  10              	.LFB1:
  11              		.file 1 "src/MemAlloc.cpp"
   1:src/MemAlloc.cpp **** #include "../h/MemAlloc.hpp"
   2:src/MemAlloc.cpp **** 
   3:src/MemAlloc.cpp **** 
   4:src/MemAlloc.cpp **** 
   5:src/MemAlloc.cpp **** 
   6:src/MemAlloc.cpp **** void updateUsed(BlockHead* usedS, BlockHead* newBlock){         //Places newBlock in usedS list
  12              		.loc 1 6 55
  13              		.cfi_startproc
  14              	.LVL0:
  15 0000 130101FF 		addi	sp,sp,-16
  16              		.cfi_def_cfa_offset 16
  17 0004 23348100 		sd	s0,8(sp)
  18              		.cfi_offset 8, -8
  19 0008 13040101 		addi	s0,sp,16
  20              		.cfi_def_cfa 8, 0
   7:src/MemAlloc.cpp ****     if(!usedS){                                          //First block allocated
  21              		.loc 1 7 5
  22              	.LBB2:
  23 000c 630C0500 		beqz	a0,.L7
  24              	.LBE2:
   8:src/MemAlloc.cpp ****         usedS = newBlock;
   9:src/MemAlloc.cpp ****         newBlock->next = nullptr;
  10:src/MemAlloc.cpp ****     } else if ((char *) newBlock < (char*) usedS){      //New block goes as head block
  25              		.loc 1 10 12
  26              	.LBB6:
  27              	.LBB3:
  28 0010 63FEA500 		bleu	a0,a1,.L4
  11:src/MemAlloc.cpp ****         newBlock->next = usedS;
  29              		.loc 1 11 9
  30              		.loc 1 11 24 is_stmt 0
  31 0014 23B0A500 		sd	a0,0(a1)
  12:src/MemAlloc.cpp ****         usedS = newBlock;
  32              		.loc 1 12 9 is_stmt 1
  33              	.LVL1:
  34              	.L1:
  35              	.LBE3:
  36              	.LBE6:
  13:src/MemAlloc.cpp ****     } else {                                            //Find where to place in list
  14:src/MemAlloc.cpp ****         BlockHead* prevUsed = usedS;
  15:src/MemAlloc.cpp ****         for(;prevUsed->next && (char*)prevUsed->next < (char *)newBlock; prevUsed = prevUsed->next)
  16:src/MemAlloc.cpp ****         newBlock->next = prevUsed->next;
  17:src/MemAlloc.cpp ****         prevUsed->next = newBlock;
  18:src/MemAlloc.cpp ****     }
  19:src/MemAlloc.cpp **** }
  37              		.loc 1 19 1 is_stmt 0
  38 0018 03348100 		ld	s0,8(sp)
  39              		.cfi_remember_state
GAS LISTING /tmp/cc2p5MvC.s 			page 2


  40              		.cfi_restore 8
  41              		.cfi_def_cfa 2, 16
  42 001c 13010101 		addi	sp,sp,16
  43              		.cfi_def_cfa_offset 0
  44 0020 67800000 		jr	ra
  45              	.LVL2:
  46              	.L7:
  47              		.cfi_restore_state
  48              	.LBB7:
   8:src/MemAlloc.cpp ****         newBlock->next = nullptr;
  49              		.loc 1 8 9 is_stmt 1
   9:src/MemAlloc.cpp ****     } else if ((char *) newBlock < (char*) usedS){      //New block goes as head block
  50              		.loc 1 9 9
   9:src/MemAlloc.cpp ****     } else if ((char *) newBlock < (char*) usedS){      //New block goes as head block
  51              		.loc 1 9 24 is_stmt 0
  52 0024 23B00500 		sd	zero,0(a1)
  53 0028 6FF01FFF 		j	.L1
  54              	.LVL3:
  55              	.L4:
  56              	.LBB5:
  57              	.LBB4:
  15:src/MemAlloc.cpp ****         newBlock->next = prevUsed->next;
  58              		.loc 1 15 9 is_stmt 1 discriminator 3
  15:src/MemAlloc.cpp ****         newBlock->next = prevUsed->next;
  59              		.loc 1 15 29 discriminator 3
  60 002c 93070500 		mv	a5,a0
  15:src/MemAlloc.cpp ****         newBlock->next = prevUsed->next;
  61              		.loc 1 15 24 is_stmt 0 discriminator 3
  62 0030 03350500 		ld	a0,0(a0)
  63              	.LVL4:
  15:src/MemAlloc.cpp ****         newBlock->next = prevUsed->next;
  64              		.loc 1 15 29 discriminator 3
  65 0034 63040500 		beqz	a0,.L5
  15:src/MemAlloc.cpp ****         newBlock->next = prevUsed->next;
  66              		.loc 1 15 29 discriminator 1
  67 0038 E36AB5FE 		bltu	a0,a1,.L4
  68              	.L5:
  16:src/MemAlloc.cpp ****         prevUsed->next = newBlock;
  69              		.loc 1 16 9 is_stmt 1
  16:src/MemAlloc.cpp ****         prevUsed->next = newBlock;
  70              		.loc 1 16 24 is_stmt 0
  71 003c 23B0A500 		sd	a0,0(a1)
  17:src/MemAlloc.cpp ****     }
  72              		.loc 1 17 9 is_stmt 1
  17:src/MemAlloc.cpp ****     }
  73              		.loc 1 17 24 is_stmt 0
  74 0040 23B0B700 		sd	a1,0(a5)
  75              	.LBE4:
  76              	.LBE5:
  77              	.LBE7:
  78              		.loc 1 19 1
  79 0044 6FF05FFD 		j	.L1
  80              		.cfi_endproc
  81              	.LFE1:
  83              		.align	2
  84              		.globl	_ZN15MemoryAllocator9mem_allocEm
  86              	_ZN15MemoryAllocator9mem_allocEm:
GAS LISTING /tmp/cc2p5MvC.s 			page 3


  87              	.LFB2:
  20:src/MemAlloc.cpp **** 
  21:src/MemAlloc.cpp **** BlockHead* MemoryAllocator::freeStart = nullptr;
  22:src/MemAlloc.cpp **** BlockHead* MemoryAllocator::usedStart = nullptr;
  23:src/MemAlloc.cpp **** 
  24:src/MemAlloc.cpp **** void *MemoryAllocator::mem_alloc(size_t size) {
  88              		.loc 1 24 47 is_stmt 1
  89              		.cfi_startproc
  90              	.LVL5:
  91 0048 130101FF 		addi	sp,sp,-16
  92              		.cfi_def_cfa_offset 16
  93 004c 23348100 		sd	s0,8(sp)
  94              		.cfi_offset 8, -8
  95 0050 13040101 		addi	s0,sp,16
  96              		.cfi_def_cfa 8, 0
  25:src/MemAlloc.cpp ****     size_t actualSize;
  97              		.loc 1 25 5
  26:src/MemAlloc.cpp ****     size += sizeof(BlockHead);
  98              		.loc 1 26 5
  99              		.loc 1 26 10 is_stmt 0
 100 0054 13070501 		addi	a4,a0,16
 101              	.LVL6:
  27:src/MemAlloc.cpp ****     if(size%MEM_BLOCK_SIZE == 0){
 102              		.loc 1 27 5 is_stmt 1
 103              		.loc 1 27 12 is_stmt 0
 104 0058 9377F703 		andi	a5,a4,63
 105              		.loc 1 27 5
 106 005c 63860700 		beqz	a5,.L9
  28:src/MemAlloc.cpp ****         actualSize = size;          //Size fits exactly in a block
  29:src/MemAlloc.cpp ****     } else {
  30:src/MemAlloc.cpp ****         actualSize = ((size + MEM_BLOCK_SIZE - 1) / MEM_BLOCK_SIZE) * MEM_BLOCK_SIZE; //Find block 
 107              		.loc 1 30 9 is_stmt 1
 108              		.loc 1 30 46 is_stmt 0
 109 0060 1307F504 		addi	a4,a0,79
 110              	.LVL7:
 111              		.loc 1 30 20
 112 0064 137707FC 		andi	a4,a4,-64
 113              	.LVL8:
 114              	.L9:
  31:src/MemAlloc.cpp ****     }
  32:src/MemAlloc.cpp ****     BlockHead* prev = nullptr;
 115              		.loc 1 32 5 is_stmt 1
  33:src/MemAlloc.cpp ****     BlockHead* curr = nullptr;
 116              		.loc 1 33 5
  34:src/MemAlloc.cpp ****     for(curr = freeStart; curr != nullptr; curr = curr->next){
 117              		.loc 1 34 5
 118              	.LBB8:
 119              		.loc 1 34 14 is_stmt 0
 120 0068 17050000 		ld	a0,.LANCHOR0
 120      03350500 
 121              	.LVL9:
 122              	.LBE8:
  32:src/MemAlloc.cpp ****     BlockHead* curr = nullptr;
 123              		.loc 1 32 16
 124 0070 93060000 		li	a3,0
 125 0074 6F00C00C 		j	.L23
 126              	.LVL10:
GAS LISTING /tmp/cc2p5MvC.s 			page 4


 127              	.L26:
 128              	.LBB38:
 129              	.LBB9:
 130              	.LBB10:
  35:src/MemAlloc.cpp ****         if(curr->size > actualSize){        //Found the block we need, fragment it and update the l
  36:src/MemAlloc.cpp ****             BlockHead* freeFragment = (BlockHead*)((char*)curr + actualSize);
 131              		.loc 1 36 13 is_stmt 1
 132              		.loc 1 36 24 is_stmt 0
 133 0078 3306E500 		add	a2,a0,a4
 134              	.LVL11:
  37:src/MemAlloc.cpp **** 
  38:src/MemAlloc.cpp ****             //Update block sizes
  39:src/MemAlloc.cpp ****             freeFragment->size = curr->size - actualSize;
 135              		.loc 1 39 13 is_stmt 1
 136              		.loc 1 39 45 is_stmt 0
 137 007c B387E740 		sub	a5,a5,a4
 138              		.loc 1 39 32
 139 0080 2334F600 		sd	a5,8(a2)
  40:src/MemAlloc.cpp ****             curr->size = actualSize;
 140              		.loc 1 40 13 is_stmt 1
 141              		.loc 1 40 24 is_stmt 0
 142 0084 2334E500 		sd	a4,8(a0)
  41:src/MemAlloc.cpp **** 
  42:src/MemAlloc.cpp ****             //Fix block order
  43:src/MemAlloc.cpp ****             if(prev) prev->next = freeFragment;
 143              		.loc 1 43 13 is_stmt 1
 144 0088 638E0602 		beqz	a3,.L12
 145              		.loc 1 43 22 discriminator 1
 146              		.loc 1 43 33 is_stmt 0 discriminator 1
 147 008c 23B0C600 		sd	a2,0(a3)
 148              	.L13:
  44:src/MemAlloc.cpp ****             else freeStart = freeFragment;
  45:src/MemAlloc.cpp ****             freeFragment->next = curr->next;
 149              		.loc 1 45 13 is_stmt 1
 150              		.loc 1 45 40 is_stmt 0
 151 0090 83370500 		ld	a5,0(a0)
 152              		.loc 1 45 32
 153 0094 2330F600 		sd	a5,0(a2)
  46:src/MemAlloc.cpp **** 
  47:src/MemAlloc.cpp ****             //Place newly allocated block in used list
  48:src/MemAlloc.cpp **** 
  49:src/MemAlloc.cpp ****             if(!usedStart){                                          //First block allocated
 154              		.loc 1 49 13 is_stmt 1
 155              	.LBB11:
 156              		.loc 1 49 16 is_stmt 0
 157 0098 97070000 		ld	a5,.LANCHOR0+8
 157      83B70700 
 158              		.loc 1 49 13
 159 00a0 63880702 		beqz	a5,.L25
 160              	.LBE11:
 161              	.LBE10:
 162              	.LBE9:
 163              	.LBE38:
  50:src/MemAlloc.cpp ****                 usedStart = curr;
  51:src/MemAlloc.cpp ****                 curr->next = nullptr;
  52:src/MemAlloc.cpp ****             } else if ((char *) curr < (char*) usedStart){      //New block goes as head block
 164              		.loc 1 52 20 is_stmt 1
GAS LISTING /tmp/cc2p5MvC.s 			page 5


 165              	.LBB39:
 166              	.LBB32:
 167              	.LBB17:
 168              	.LBB15:
 169              	.LBB12:
 170 00a4 637EF502 		bleu	a5,a0,.L15
  53:src/MemAlloc.cpp ****                 curr->next = usedStart;
 171              		.loc 1 53 17
 172              		.loc 1 53 28 is_stmt 0
 173 00a8 2330F500 		sd	a5,0(a0)
  54:src/MemAlloc.cpp ****                 usedStart = curr;
 174              		.loc 1 54 17 is_stmt 1
 175              		.loc 1 54 27 is_stmt 0
 176 00ac 97070000 		sd	a0,.LANCHOR0+8,a5
 176      23B0A700 
 177              	.LVL12:
 178              	.L10:
 179              	.LBE12:
 180              	.LBE15:
 181              	.LBE17:
 182              	.LBE32:
 183              	.LBE39:
  55:src/MemAlloc.cpp ****             } else {                                            //Find where to place in list
  56:src/MemAlloc.cpp ****                 BlockHead* prevUsed = usedStart;
  57:src/MemAlloc.cpp ****                 for(;prevUsed->next && (char*)prevUsed->next < (char *)curr; prevUsed = prevUsed->n
  58:src/MemAlloc.cpp ****                 curr->next = prevUsed->next;
  59:src/MemAlloc.cpp ****                 prevUsed->next = curr;
  60:src/MemAlloc.cpp ****             }
  61:src/MemAlloc.cpp ****             break;
  62:src/MemAlloc.cpp ****         } else if (curr->size == actualSize){   //Found block with exact size, no fragmenting neede
  63:src/MemAlloc.cpp ****             if(prev) prev->next = curr->next;
  64:src/MemAlloc.cpp ****             else freeStart = curr->next;
  65:src/MemAlloc.cpp **** 
  66:src/MemAlloc.cpp ****             if(!usedStart){                                          //First block allocated
  67:src/MemAlloc.cpp ****                 usedStart = curr;
  68:src/MemAlloc.cpp ****                 curr->next = nullptr;
  69:src/MemAlloc.cpp ****             } else if ((char *) curr < (char*) usedStart){      //New block goes as head block
  70:src/MemAlloc.cpp ****                 curr->next = usedStart;
  71:src/MemAlloc.cpp ****                 usedStart = curr;
  72:src/MemAlloc.cpp ****             } else {                                            //Find where to place in list
  73:src/MemAlloc.cpp ****                 BlockHead* prevUsed = usedStart;
  74:src/MemAlloc.cpp ****                 for(;prevUsed->next && (char*)prevUsed->next < (char *)curr; prevUsed = prevUsed->n
  75:src/MemAlloc.cpp ****                 curr->next = prevUsed->next;
  76:src/MemAlloc.cpp ****                 prevUsed->next = curr;
  77:src/MemAlloc.cpp ****             }
  78:src/MemAlloc.cpp ****             break;
  79:src/MemAlloc.cpp ****         } else {
  80:src/MemAlloc.cpp ****             prev = curr;     //Current block doesn't fit, record it as previous
  81:src/MemAlloc.cpp ****         }
  82:src/MemAlloc.cpp ****     }
  83:src/MemAlloc.cpp **** 
  84:src/MemAlloc.cpp ****     return (char*)curr + sizeof(BlockHead);             //Could return nullptr but shouldn't happen
 184              		.loc 1 84 5 is_stmt 1
  85:src/MemAlloc.cpp **** }
 185              		.loc 1 85 1 is_stmt 0
 186 00b4 13050501 		addi	a0,a0,16
 187              	.LVL13:
GAS LISTING /tmp/cc2p5MvC.s 			page 6


 188 00b8 03348100 		ld	s0,8(sp)
 189              		.cfi_remember_state
 190              		.cfi_restore 8
 191              		.cfi_def_cfa 2, 16
 192 00bc 13010101 		addi	sp,sp,16
 193              		.cfi_def_cfa_offset 0
 194 00c0 67800000 		jr	ra
 195              	.LVL14:
 196              	.L12:
 197              		.cfi_restore_state
 198              	.LBB40:
 199              	.LBB33:
 200              	.LBB18:
  44:src/MemAlloc.cpp ****             freeFragment->next = curr->next;
 201              		.loc 1 44 18 is_stmt 1
  44:src/MemAlloc.cpp ****             freeFragment->next = curr->next;
 202              		.loc 1 44 28 is_stmt 0
 203 00c4 97070000 		sd	a2,.LANCHOR0,a5
 203      23B0C700 
 204 00cc 6FF05FFC 		j	.L13
 205              	.L25:
 206              	.LBB16:
  50:src/MemAlloc.cpp ****                 curr->next = nullptr;
 207              		.loc 1 50 17 is_stmt 1
  50:src/MemAlloc.cpp ****                 curr->next = nullptr;
 208              		.loc 1 50 27 is_stmt 0
 209 00d0 97070000 		sd	a0,.LANCHOR0+8,a5
 209      23B0A700 
  51:src/MemAlloc.cpp ****             } else if ((char *) curr < (char*) usedStart){      //New block goes as head block
 210              		.loc 1 51 17 is_stmt 1
  51:src/MemAlloc.cpp ****             } else if ((char *) curr < (char*) usedStart){      //New block goes as head block
 211              		.loc 1 51 28 is_stmt 0
 212 00d8 23300500 		sd	zero,0(a0)
 213 00dc 6FF09FFD 		j	.L10
 214              	.LVL15:
 215              	.L15:
 216              	.LBB14:
 217              	.LBB13:
  57:src/MemAlloc.cpp ****                 curr->next = prevUsed->next;
 218              		.loc 1 57 17 is_stmt 1 discriminator 3
  57:src/MemAlloc.cpp ****                 curr->next = prevUsed->next;
 219              		.loc 1 57 37 discriminator 3
 220 00e0 13870700 		mv	a4,a5
  57:src/MemAlloc.cpp ****                 curr->next = prevUsed->next;
 221              		.loc 1 57 32 is_stmt 0 discriminator 3
 222 00e4 83B70700 		ld	a5,0(a5)
 223              	.LVL16:
  57:src/MemAlloc.cpp ****                 curr->next = prevUsed->next;
 224              		.loc 1 57 37 discriminator 3
 225 00e8 63840700 		beqz	a5,.L16
  57:src/MemAlloc.cpp ****                 curr->next = prevUsed->next;
 226              		.loc 1 57 37 discriminator 1
 227 00ec E3EAA7FE 		bltu	a5,a0,.L15
 228              	.L16:
  58:src/MemAlloc.cpp ****                 prevUsed->next = curr;
 229              		.loc 1 58 17 is_stmt 1
  58:src/MemAlloc.cpp ****                 prevUsed->next = curr;
GAS LISTING /tmp/cc2p5MvC.s 			page 7


 230              		.loc 1 58 28 is_stmt 0
 231 00f0 2330F500 		sd	a5,0(a0)
  59:src/MemAlloc.cpp ****             }
 232              		.loc 1 59 17 is_stmt 1
  59:src/MemAlloc.cpp ****             }
 233              		.loc 1 59 32 is_stmt 0
 234 00f4 2330A700 		sd	a0,0(a4)
 235 00f8 6FF0DFFB 		j	.L10
 236              	.LVL17:
 237              	.L18:
 238              	.LBE13:
 239              	.LBE14:
 240              	.LBE16:
 241              	.LBE18:
 242              	.LBB19:
 243              	.LBB20:
  64:src/MemAlloc.cpp **** 
 244              		.loc 1 64 18 is_stmt 1
  64:src/MemAlloc.cpp **** 
 245              		.loc 1 64 36 is_stmt 0
 246 00fc 83370500 		ld	a5,0(a0)
  64:src/MemAlloc.cpp **** 
 247              		.loc 1 64 28
 248 0100 17070000 		sd	a5,.LANCHOR0,a4
 248      2330F700 
 249              	.LVL18:
 250 0108 6F004005 		j	.L19
 251              	.L27:
 252              	.LBB21:
  67:src/MemAlloc.cpp ****                 curr->next = nullptr;
 253              		.loc 1 67 17 is_stmt 1
  67:src/MemAlloc.cpp ****                 curr->next = nullptr;
 254              		.loc 1 67 27 is_stmt 0
 255 010c 97070000 		sd	a0,.LANCHOR0+8,a5
 255      23B0A700 
  68:src/MemAlloc.cpp ****             } else if ((char *) curr < (char*) usedStart){      //New block goes as head block
 256              		.loc 1 68 17 is_stmt 1
  68:src/MemAlloc.cpp ****             } else if ((char *) curr < (char*) usedStart){      //New block goes as head block
 257              		.loc 1 68 28 is_stmt 0
 258 0114 23300500 		sd	zero,0(a0)
 259 0118 6FF0DFF9 		j	.L10
 260              	.L21:
 261              	.LVL19:
 262              	.LBB22:
 263              	.LBB23:
  74:src/MemAlloc.cpp ****                 curr->next = prevUsed->next;
 264              		.loc 1 74 17 is_stmt 1 discriminator 3
  74:src/MemAlloc.cpp ****                 curr->next = prevUsed->next;
 265              		.loc 1 74 37 discriminator 3
 266 011c 13870700 		mv	a4,a5
  74:src/MemAlloc.cpp ****                 curr->next = prevUsed->next;
 267              		.loc 1 74 32 is_stmt 0 discriminator 3
 268 0120 83B70700 		ld	a5,0(a5)
 269              	.LVL20:
  74:src/MemAlloc.cpp ****                 curr->next = prevUsed->next;
 270              		.loc 1 74 37 discriminator 3
 271 0124 63840700 		beqz	a5,.L22
GAS LISTING /tmp/cc2p5MvC.s 			page 8


  74:src/MemAlloc.cpp ****                 curr->next = prevUsed->next;
 272              		.loc 1 74 37 discriminator 1
 273 0128 E3EAA7FE 		bltu	a5,a0,.L21
 274              	.L22:
  75:src/MemAlloc.cpp ****                 prevUsed->next = curr;
 275              		.loc 1 75 17 is_stmt 1
  75:src/MemAlloc.cpp ****                 prevUsed->next = curr;
 276              		.loc 1 75 28 is_stmt 0
 277 012c 2330F500 		sd	a5,0(a0)
  76:src/MemAlloc.cpp ****             }
 278              		.loc 1 76 17 is_stmt 1
  76:src/MemAlloc.cpp ****             }
 279              		.loc 1 76 32 is_stmt 0
 280 0130 2330A700 		sd	a0,0(a4)
 281 0134 6FF01FF8 		j	.L10
 282              	.LVL21:
 283              	.L17:
 284              	.LBE23:
 285              	.LBE22:
 286              	.LBE21:
 287              	.LBE20:
  80:src/MemAlloc.cpp ****         }
 288              		.loc 1 80 13 is_stmt 1 discriminator 2
 289              	.LBE19:
 290              	.LBE33:
  34:src/MemAlloc.cpp ****         if(curr->size > actualSize){        //Found the block we need, fragment it and update the l
 291              		.loc 1 34 5 discriminator 2
 292              	.LBB34:
 293              	.LBB29:
  80:src/MemAlloc.cpp ****         }
 294              		.loc 1 80 18 is_stmt 0 discriminator 2
 295 0138 93060500 		mv	a3,a0
 296              	.LBE29:
 297              	.LBE34:
  34:src/MemAlloc.cpp ****         if(curr->size > actualSize){        //Found the block we need, fragment it and update the l
 298              		.loc 1 34 49 discriminator 2
 299 013c 03350500 		ld	a0,0(a0)
 300              	.LVL22:
 301              	.L23:
  34:src/MemAlloc.cpp ****         if(curr->size > actualSize){        //Found the block we need, fragment it and update the l
 302              		.loc 1 34 32 is_stmt 1 discriminator 1
 303 0140 E30A05F6 		beqz	a0,.L10
 304              	.LBE40:
  35:src/MemAlloc.cpp ****             BlockHead* freeFragment = (BlockHead*)((char*)curr + actualSize);
 305              		.loc 1 35 9
 306              	.LBB41:
 307              	.LBB35:
  35:src/MemAlloc.cpp ****             BlockHead* freeFragment = (BlockHead*)((char*)curr + actualSize);
 308              		.loc 1 35 18 is_stmt 0
 309 0144 83378500 		ld	a5,8(a0)
  35:src/MemAlloc.cpp ****             BlockHead* freeFragment = (BlockHead*)((char*)curr + actualSize);
 310              		.loc 1 35 9
 311 0148 E368F7F2 		bgtu	a5,a4,.L26
 312              	.LBE35:
 313              	.LBE41:
  62:src/MemAlloc.cpp ****             if(prev) prev->next = curr->next;
 314              		.loc 1 62 16 is_stmt 1
GAS LISTING /tmp/cc2p5MvC.s 			page 9


 315              	.LBB42:
 316              	.LBB36:
 317              	.LBB30:
 318 014c E396E7FE 		bne	a5,a4,.L17
 319              	.LBB27:
  63:src/MemAlloc.cpp ****             else freeStart = curr->next;
 320              		.loc 1 63 13
 321 0150 E38606FA 		beqz	a3,.L18
  63:src/MemAlloc.cpp ****             else freeStart = curr->next;
 322              		.loc 1 63 22 discriminator 1
  63:src/MemAlloc.cpp ****             else freeStart = curr->next;
 323              		.loc 1 63 41 is_stmt 0 discriminator 1
 324 0154 83370500 		ld	a5,0(a0)
  63:src/MemAlloc.cpp ****             else freeStart = curr->next;
 325              		.loc 1 63 33 discriminator 1
 326 0158 23B0F600 		sd	a5,0(a3)
 327              	.LVL23:
 328              	.L19:
  66:src/MemAlloc.cpp ****                 usedStart = curr;
 329              		.loc 1 66 13 is_stmt 1
 330              	.LBB25:
  66:src/MemAlloc.cpp ****                 usedStart = curr;
 331              		.loc 1 66 16 is_stmt 0
 332 015c 97070000 		ld	a5,.LANCHOR0+8
 332      83B70700 
  66:src/MemAlloc.cpp ****                 usedStart = curr;
 333              		.loc 1 66 13
 334 0164 E38407FA 		beqz	a5,.L27
 335              	.LBE25:
 336              	.LBE27:
 337              	.LBE30:
 338              	.LBE36:
 339              	.LBE42:
  69:src/MemAlloc.cpp ****                 curr->next = usedStart;
 340              		.loc 1 69 20 is_stmt 1
 341              	.LBB43:
 342              	.LBB37:
 343              	.LBB31:
 344              	.LBB28:
 345              	.LBB26:
 346              	.LBB24:
 347 0168 E37AF5FA 		bleu	a5,a0,.L21
  70:src/MemAlloc.cpp ****                 usedStart = curr;
 348              		.loc 1 70 17
  70:src/MemAlloc.cpp ****                 usedStart = curr;
 349              		.loc 1 70 28 is_stmt 0
 350 016c 2330F500 		sd	a5,0(a0)
  71:src/MemAlloc.cpp ****             } else {                                            //Find where to place in list
 351              		.loc 1 71 17 is_stmt 1
  71:src/MemAlloc.cpp ****             } else {                                            //Find where to place in list
 352              		.loc 1 71 27 is_stmt 0
 353 0170 97070000 		sd	a0,.LANCHOR0+8,a5
 353      23B0A700 
 354 0178 6FF0DFF3 		j	.L10
 355              	.LBE24:
 356              	.LBE26:
 357              	.LBE28:
GAS LISTING /tmp/cc2p5MvC.s 			page 10


 358              	.LBE31:
 359              	.LBE37:
 360              	.LBE43:
 361              		.cfi_endproc
 362              	.LFE2:
 364              		.align	2
 365              		.globl	_ZN15MemoryAllocator15tryJoinWithNextEP9BlockHead
 367              	_ZN15MemoryAllocator15tryJoinWithNextEP9BlockHead:
 368              	.LFB4:
  86:src/MemAlloc.cpp **** 
  87:src/MemAlloc.cpp **** 
  88:src/MemAlloc.cpp **** int MemoryAllocator::mem_free(void *old) {
  89:src/MemAlloc.cpp ****     if(!old || old < HEAP_START_ADDR || old > HEAP_END_ADDR) return -1;
  90:src/MemAlloc.cpp ****     if(usedStart == nullptr) return -2;
  91:src/MemAlloc.cpp **** 
  92:src/MemAlloc.cpp ****     BlockHead* curr = (BlockHead*)((char*)old - sizeof(BlockHead));
  93:src/MemAlloc.cpp ****     if(curr < usedStart){       //Shouldn't happen
  94:src/MemAlloc.cpp ****         return -3;
  95:src/MemAlloc.cpp ****     }
  96:src/MemAlloc.cpp **** 
  97:src/MemAlloc.cpp ****     //Update used list
  98:src/MemAlloc.cpp ****     if(curr == usedStart){
  99:src/MemAlloc.cpp ****         usedStart = usedStart->next;
 100:src/MemAlloc.cpp ****         curr->next = nullptr;
 101:src/MemAlloc.cpp ****     } else {
 102:src/MemAlloc.cpp ****         BlockHead* prev;
 103:src/MemAlloc.cpp ****         for(prev = usedStart; prev->next && prev->next != curr; prev = prev->next);
 104:src/MemAlloc.cpp ****         prev->next = curr->next;
 105:src/MemAlloc.cpp ****         curr->next = nullptr;
 106:src/MemAlloc.cpp ****     }
 107:src/MemAlloc.cpp **** 
 108:src/MemAlloc.cpp ****     //Update free list
 109:src/MemAlloc.cpp ****     if(freeStart == nullptr){       //The only free block
 110:src/MemAlloc.cpp ****         freeStart = curr;
 111:src/MemAlloc.cpp ****         curr->next = nullptr;
 112:src/MemAlloc.cpp ****     } else if ((char*) curr < (char *)freeStart){   //Goes before the first free block
 113:src/MemAlloc.cpp ****         curr->next = freeStart;
 114:src/MemAlloc.cpp ****         freeStart = curr;
 115:src/MemAlloc.cpp ****         tryJoinWithNext(curr);
 116:src/MemAlloc.cpp ****     } else {                        //Find where to insert in list
 117:src/MemAlloc.cpp ****         BlockHead* prev = freeStart;
 118:src/MemAlloc.cpp ****         BlockHead* temp = freeStart;
 119:src/MemAlloc.cpp ****         for(; prev->next && (char*)prev->next < (char*)curr; prev = prev->next);
 120:src/MemAlloc.cpp **** 
 121:src/MemAlloc.cpp ****         curr->next = prev->next;
 122:src/MemAlloc.cpp ****         prev->next = curr;
 123:src/MemAlloc.cpp ****         tryJoinWithNext(curr);
 124:src/MemAlloc.cpp ****         tryJoinWithNext(prev);
 125:src/MemAlloc.cpp ****         BlockHead* temp2 = temp;
 126:src/MemAlloc.cpp ****         int a = temp2 - temp;
 127:src/MemAlloc.cpp ****         a++;
 128:src/MemAlloc.cpp ****     }
 129:src/MemAlloc.cpp ****     return 0;
 130:src/MemAlloc.cpp **** }
 131:src/MemAlloc.cpp **** 
 132:src/MemAlloc.cpp **** void MemoryAllocator::tryJoinWithNext(BlockHead *curr) {
 369              		.loc 1 132 56 is_stmt 1
GAS LISTING /tmp/cc2p5MvC.s 			page 11


 370              		.cfi_startproc
 371              	.LVL24:
 372 017c 130101FF 		addi	sp,sp,-16
 373              		.cfi_def_cfa_offset 16
 374 0180 23348100 		sd	s0,8(sp)
 375              		.cfi_offset 8, -8
 376 0184 13040101 		addi	s0,sp,16
 377              		.cfi_def_cfa 8, 0
 133:src/MemAlloc.cpp ****     if(curr->next && (char*)curr->next == (char*)curr + curr->size + sizeof(BlockHead)){
 378              		.loc 1 133 5
 379              		.loc 1 133 14 is_stmt 0
 380 0188 83370500 		ld	a5,0(a0)
 381              		.loc 1 133 5
 382 018c 638A0700 		beqz	a5,.L28
 383              		.loc 1 133 63 discriminator 1
 384 0190 83368500 		ld	a3,8(a0)
 385              		.loc 1 133 68 discriminator 1
 386 0194 13870601 		addi	a4,a3,16
 387 0198 3307E500 		add	a4,a0,a4
 388              		.loc 1 133 19 discriminator 1
 389 019c 6388E700 		beq	a5,a4,.L31
 390              	.L28:
 134:src/MemAlloc.cpp ****         curr->size += curr->next->size + sizeof (BlockHead);
 135:src/MemAlloc.cpp ****         curr->next = curr->next->next;
 136:src/MemAlloc.cpp ****     }
 137:src/MemAlloc.cpp **** }
 391              		.loc 1 137 1
 392 01a0 03348100 		ld	s0,8(sp)
 393              		.cfi_remember_state
 394              		.cfi_restore 8
 395              		.cfi_def_cfa 2, 16
 396 01a4 13010101 		addi	sp,sp,16
 397              		.cfi_def_cfa_offset 0
 398 01a8 67800000 		jr	ra
 399              	.L31:
 400              		.cfi_restore_state
 134:src/MemAlloc.cpp ****         curr->size += curr->next->size + sizeof (BlockHead);
 401              		.loc 1 134 9 is_stmt 1
 134:src/MemAlloc.cpp ****         curr->size += curr->next->size + sizeof (BlockHead);
 402              		.loc 1 134 35 is_stmt 0
 403 01ac 03B78700 		ld	a4,8(a5)
 134:src/MemAlloc.cpp ****         curr->size += curr->next->size + sizeof (BlockHead);
 404              		.loc 1 134 20
 405 01b0 B386E600 		add	a3,a3,a4
 406 01b4 93860601 		addi	a3,a3,16
 407 01b8 2334D500 		sd	a3,8(a0)
 135:src/MemAlloc.cpp ****     }
 408              		.loc 1 135 9 is_stmt 1
 135:src/MemAlloc.cpp ****     }
 409              		.loc 1 135 34 is_stmt 0
 410 01bc 83B70700 		ld	a5,0(a5)
 135:src/MemAlloc.cpp ****     }
 411              		.loc 1 135 20
 412 01c0 2330F500 		sd	a5,0(a0)
 413              		.loc 1 137 1
 414 01c4 6FF0DFFD 		j	.L28
 415              		.cfi_endproc
GAS LISTING /tmp/cc2p5MvC.s 			page 12


 416              	.LFE4:
 418              		.align	2
 419              		.globl	_ZN15MemoryAllocator8mem_freeEPv
 421              	_ZN15MemoryAllocator8mem_freeEPv:
 422              	.LFB3:
  88:src/MemAlloc.cpp ****     if(!old || old < HEAP_START_ADDR || old > HEAP_END_ADDR) return -1;
 423              		.loc 1 88 42 is_stmt 1
 424              		.cfi_startproc
 425              	.LVL25:
  89:src/MemAlloc.cpp ****     if(usedStart == nullptr) return -2;
 426              		.loc 1 89 5
 427 01c8 63040510 		beqz	a0,.L40
 428 01cc 13070500 		mv	a4,a0
  89:src/MemAlloc.cpp ****     if(usedStart == nullptr) return -2;
 429              		.loc 1 89 20 is_stmt 0 discriminator 2
 430 01d0 97070000 		la	a5,HEAP_START_ADDR
 430      83B70700 
 431 01d8 83B70700 		ld	a5,0(a5)
  89:src/MemAlloc.cpp ****     if(usedStart == nullptr) return -2;
 432              		.loc 1 89 13 discriminator 2
 433 01dc 636EF50E 		bgtu	a5,a0,.L41
  89:src/MemAlloc.cpp ****     if(usedStart == nullptr) return -2;
 434              		.loc 1 89 45 discriminator 4
 435 01e0 97070000 		la	a5,HEAP_END_ADDR
 435      83B70700 
 436 01e8 83B70700 		ld	a5,0(a5)
  89:src/MemAlloc.cpp ****     if(usedStart == nullptr) return -2;
 437              		.loc 1 89 38 discriminator 4
 438 01ec 63EAA70E 		bltu	a5,a0,.L42
  90:src/MemAlloc.cpp **** 
 439              		.loc 1 90 5 is_stmt 1
  90:src/MemAlloc.cpp **** 
 440              		.loc 1 90 18 is_stmt 0
 441 01f0 97070000 		ld	a5,.LANCHOR0+8
 441      83B70700 
  90:src/MemAlloc.cpp **** 
 442              		.loc 1 90 5
 443 01f8 6388070E 		beqz	a5,.L43
  92:src/MemAlloc.cpp ****     if(curr < usedStart){       //Shouldn't happen
 444              		.loc 1 92 5 is_stmt 1
  92:src/MemAlloc.cpp ****     if(curr < usedStart){       //Shouldn't happen
 445              		.loc 1 92 16 is_stmt 0
 446 01fc 130505FF 		addi	a0,a0,-16
 447              	.LVL26:
  93:src/MemAlloc.cpp ****         return -3;
 448              		.loc 1 93 5 is_stmt 1
 449 0200 6368F50E 		bgtu	a5,a0,.L44
  98:src/MemAlloc.cpp ****         usedStart = usedStart->next;
 450              		.loc 1 98 5
 451              	.LBB44:
 452 0204 6384A708 		beq	a5,a0,.L48
 453              	.L34:
 454              	.LVL27:
 455              	.LBB45:
 103:src/MemAlloc.cpp ****         prev->next = curr->next;
 456              		.loc 1 103 42 discriminator 4
 457 0208 93860700 		mv	a3,a5
GAS LISTING /tmp/cc2p5MvC.s 			page 13


 103:src/MemAlloc.cpp ****         prev->next = curr->next;
 458              		.loc 1 103 37 is_stmt 0 discriminator 4
 459 020c 83B70700 		ld	a5,0(a5)
 460              	.LVL28:
 103:src/MemAlloc.cpp ****         prev->next = curr->next;
 461              		.loc 1 103 42 discriminator 4
 462 0210 63840700 		beqz	a5,.L36
 103:src/MemAlloc.cpp ****         prev->next = curr->next;
 463              		.loc 1 103 42 discriminator 2
 464 0214 E39AA7FE 		bne	a5,a0,.L34
 465              	.L36:
 104:src/MemAlloc.cpp ****         curr->next = nullptr;
 466              		.loc 1 104 9 is_stmt 1
 104:src/MemAlloc.cpp ****         curr->next = nullptr;
 467              		.loc 1 104 28 is_stmt 0
 468 0218 833707FF 		ld	a5,-16(a4)
 104:src/MemAlloc.cpp ****         curr->next = nullptr;
 469              		.loc 1 104 20
 470 021c 23B0F600 		sd	a5,0(a3)
 105:src/MemAlloc.cpp ****     }
 471              		.loc 1 105 9 is_stmt 1
 105:src/MemAlloc.cpp ****     }
 472              		.loc 1 105 20 is_stmt 0
 473 0220 233807FE 		sd	zero,-16(a4)
 474              	.LVL29:
 475              	.L35:
 476              	.LBE45:
 477              	.LBE44:
 109:src/MemAlloc.cpp ****         freeStart = curr;
 478              		.loc 1 109 5 is_stmt 1
 479              	.LBB46:
 109:src/MemAlloc.cpp ****         freeStart = curr;
 480              		.loc 1 109 18 is_stmt 0
 481 0224 97070000 		ld	a5,.LANCHOR0
 481      83B70700 
 109:src/MemAlloc.cpp ****         freeStart = curr;
 482              		.loc 1 109 5
 483 022c 638A0706 		beqz	a5,.L49
 484              	.LBE46:
  88:src/MemAlloc.cpp ****     if(!old || old < HEAP_START_ADDR || old > HEAP_END_ADDR) return -1;
 485              		.loc 1 88 42
 486 0230 130101FE 		addi	sp,sp,-32
 487              		.cfi_def_cfa_offset 32
 488 0234 233C1100 		sd	ra,24(sp)
 489 0238 23388100 		sd	s0,16(sp)
 490 023c 23349100 		sd	s1,8(sp)
 491              		.cfi_offset 1, -8
 492              		.cfi_offset 8, -16
 493              		.cfi_offset 9, -24
 494 0240 13040102 		addi	s0,sp,32
 495              		.cfi_def_cfa 8, 0
 112:src/MemAlloc.cpp ****         curr->next = freeStart;
 496              		.loc 1 112 12 is_stmt 1
 497              	.LBB51:
 498              	.LBB47:
 499 0244 6368F506 		bgtu	a5,a0,.L50
 500              	.L38:
GAS LISTING /tmp/cc2p5MvC.s 			page 14


 501              	.LVL30:
 502              	.LBB48:
 119:src/MemAlloc.cpp **** 
 503              		.loc 1 119 9 discriminator 3
 119:src/MemAlloc.cpp **** 
 504              		.loc 1 119 26 discriminator 3
 505 0248 93840700 		mv	s1,a5
 506              	.LVL31:
 119:src/MemAlloc.cpp **** 
 507              		.loc 1 119 21 is_stmt 0 discriminator 3
 508 024c 83B70700 		ld	a5,0(a5)
 119:src/MemAlloc.cpp **** 
 509              		.loc 1 119 26 discriminator 3
 510 0250 63840700 		beqz	a5,.L39
 119:src/MemAlloc.cpp **** 
 511              		.loc 1 119 26 discriminator 1
 512 0254 E3EAA7FE 		bltu	a5,a0,.L38
 513              	.L39:
 121:src/MemAlloc.cpp ****         prev->next = curr;
 514              		.loc 1 121 9 is_stmt 1
 121:src/MemAlloc.cpp ****         prev->next = curr;
 515              		.loc 1 121 20 is_stmt 0
 516 0258 2338F7FE 		sd	a5,-16(a4)
 517              	.LVL32:
 122:src/MemAlloc.cpp ****         tryJoinWithNext(curr);
 518              		.loc 1 122 9 is_stmt 1
 122:src/MemAlloc.cpp ****         tryJoinWithNext(curr);
 519              		.loc 1 122 20 is_stmt 0
 520 025c 23B0A400 		sd	a0,0(s1)
 123:src/MemAlloc.cpp ****         tryJoinWithNext(prev);
 521              		.loc 1 123 9 is_stmt 1
 123:src/MemAlloc.cpp ****         tryJoinWithNext(prev);
 522              		.loc 1 123 24 is_stmt 0
 523 0260 97000000 		call	_ZN15MemoryAllocator15tryJoinWithNextEP9BlockHead
 523      E7800000 
 524              	.LVL33:
 124:src/MemAlloc.cpp ****         BlockHead* temp2 = temp;
 525              		.loc 1 124 9 is_stmt 1
 124:src/MemAlloc.cpp ****         BlockHead* temp2 = temp;
 526              		.loc 1 124 24 is_stmt 0
 527 0268 13850400 		mv	a0,s1
 528 026c 97000000 		call	_ZN15MemoryAllocator15tryJoinWithNextEP9BlockHead
 528      E7800000 
 529              	.LVL34:
 125:src/MemAlloc.cpp ****         int a = temp2 - temp;
 530              		.loc 1 125 9 is_stmt 1
 126:src/MemAlloc.cpp ****         a++;
 531              		.loc 1 126 9
 127:src/MemAlloc.cpp ****     }
 532              		.loc 1 127 9
 533              	.LBE48:
 534              	.LBE47:
 535              	.LBE51:
 129:src/MemAlloc.cpp **** }
 536              		.loc 1 129 12 is_stmt 0
 537 0274 13050000 		li	a0,0
 538              	.LVL35:
GAS LISTING /tmp/cc2p5MvC.s 			page 15


 539              	.L33:
 130:src/MemAlloc.cpp **** 
 540              		.loc 1 130 1
 541 0278 83308101 		ld	ra,24(sp)
 542              		.cfi_restore 1
 543 027c 03340101 		ld	s0,16(sp)
 544              		.cfi_restore 8
 545              		.cfi_def_cfa 2, 32
 546 0280 83348100 		ld	s1,8(sp)
 547              		.cfi_restore 9
 548 0284 13010102 		addi	sp,sp,32
 549              		.cfi_def_cfa_offset 0
 550 0288 67800000 		jr	ra
 551              	.LVL36:
 552              	.L48:
 553              	.LBB52:
  99:src/MemAlloc.cpp ****         curr->next = nullptr;
 554              		.loc 1 99 9 is_stmt 1
  99:src/MemAlloc.cpp ****         curr->next = nullptr;
 555              		.loc 1 99 32 is_stmt 0
 556 028c 83B70700 		ld	a5,0(a5)
  99:src/MemAlloc.cpp ****         curr->next = nullptr;
 557              		.loc 1 99 19
 558 0290 97060000 		sd	a5,.LANCHOR0+8,a3
 558      23B0F600 
 100:src/MemAlloc.cpp ****     } else {
 559              		.loc 1 100 9 is_stmt 1
 100:src/MemAlloc.cpp ****     } else {
 560              		.loc 1 100 20 is_stmt 0
 561 0298 233807FE 		sd	zero,-16(a4)
 562 029c 6FF09FF8 		j	.L35
 563              	.L49:
 564              	.LBE52:
 565              	.LBB53:
 110:src/MemAlloc.cpp ****         curr->next = nullptr;
 566              		.loc 1 110 9 is_stmt 1
 110:src/MemAlloc.cpp ****         curr->next = nullptr;
 567              		.loc 1 110 19 is_stmt 0
 568 02a0 97070000 		sd	a0,.LANCHOR0,a5
 568      23B0A700 
 111:src/MemAlloc.cpp ****     } else if ((char*) curr < (char *)freeStart){   //Goes before the first free block
 569              		.loc 1 111 9 is_stmt 1
 111:src/MemAlloc.cpp ****     } else if ((char*) curr < (char *)freeStart){   //Goes before the first free block
 570              		.loc 1 111 20 is_stmt 0
 571 02a8 233807FE 		sd	zero,-16(a4)
 572              	.LBE53:
 129:src/MemAlloc.cpp **** }
 573              		.loc 1 129 12
 574 02ac 13050000 		li	a0,0
 575              	.LVL37:
 576              	.LBB54:
 577 02b0 67800000 		ret
 578              	.LVL38:
 579              	.L50:
 580              		.cfi_def_cfa_register 8
 581              		.cfi_offset 1, -8
 582              		.cfi_offset 8, -16
GAS LISTING /tmp/cc2p5MvC.s 			page 16


 583              		.cfi_offset 9, -24
 584              	.LBB49:
 113:src/MemAlloc.cpp ****         freeStart = curr;
 585              		.loc 1 113 9 is_stmt 1
 113:src/MemAlloc.cpp ****         freeStart = curr;
 586              		.loc 1 113 20 is_stmt 0
 587 02b4 2338F7FE 		sd	a5,-16(a4)
 114:src/MemAlloc.cpp ****         tryJoinWithNext(curr);
 588              		.loc 1 114 9 is_stmt 1
 114:src/MemAlloc.cpp ****         tryJoinWithNext(curr);
 589              		.loc 1 114 19 is_stmt 0
 590 02b8 97070000 		sd	a0,.LANCHOR0,a5
 590      23B0A700 
 115:src/MemAlloc.cpp ****     } else {                        //Find where to insert in list
 591              		.loc 1 115 9 is_stmt 1
 115:src/MemAlloc.cpp ****     } else {                        //Find where to insert in list
 592              		.loc 1 115 24 is_stmt 0
 593 02c0 97000000 		call	_ZN15MemoryAllocator15tryJoinWithNextEP9BlockHead
 593      E7800000 
 594              	.LVL39:
 595              	.LBE49:
 596              	.LBE54:
 129:src/MemAlloc.cpp **** }
 597              		.loc 1 129 12
 598 02c8 13050000 		li	a0,0
 599              	.LBB55:
 600              	.LBB50:
 601 02cc 6FF0DFFA 		j	.L33
 602              	.LVL40:
 603              	.L40:
 604              		.cfi_def_cfa_register 2
 605              		.cfi_restore 1
 606              		.cfi_restore 8
 607              		.cfi_restore 9
 608              	.LBE50:
 609              	.LBE55:
  89:src/MemAlloc.cpp ****     if(usedStart == nullptr) return -2;
 610              		.loc 1 89 70
 611 02d0 1305F0FF 		li	a0,-1
 612              	.LVL41:
 613 02d4 67800000 		ret
 614              	.LVL42:
 615              	.L41:
 616 02d8 1305F0FF 		li	a0,-1
 617              	.LVL43:
 618 02dc 67800000 		ret
 619              	.LVL44:
 620              	.L42:
 621 02e0 1305F0FF 		li	a0,-1
 622              	.LVL45:
 623 02e4 67800000 		ret
 624              	.LVL46:
 625              	.L43:
  90:src/MemAlloc.cpp **** 
 626              		.loc 1 90 38
 627 02e8 1305E0FF 		li	a0,-2
 628              	.LVL47:
GAS LISTING /tmp/cc2p5MvC.s 			page 17


 629 02ec 67800000 		ret
 630              	.LVL48:
 631              	.L44:
  94:src/MemAlloc.cpp ****     }
 632              		.loc 1 94 17
 633 02f0 1305D0FF 		li	a0,-3
 634              	.LVL49:
 130:src/MemAlloc.cpp **** 
 635              		.loc 1 130 1
 636 02f4 67800000 		ret
 637              		.cfi_endproc
 638              	.LFE3:
 640              		.globl	_ZN15MemoryAllocator9usedStartE
 641              		.globl	_ZN15MemoryAllocator9freeStartE
 642              		.bss
 643              		.align	3
 644              		.set	.LANCHOR0,. + 0
 647              	_ZN15MemoryAllocator9freeStartE:
 648 0000 00000000 		.zero	8
 648      00000000 
 651              	_ZN15MemoryAllocator9usedStartE:
 652 0008 00000000 		.zero	8
 652      00000000 
 653              		.text
 654              	.Letext0:
 655              		.file 2 "src/../h/../lib/hw.h"
 656              		.file 3 "src/../h/MemAlloc.hpp"
GAS LISTING /tmp/cc2p5MvC.s 			page 18

