GAS LISTING /tmp/ccBWRdXi.s 			page 1


   1              		.file	"Scheduler.cpp"
   2              		.option pic
   3              		.option norelax
   4              		.text
   5              	.Ltext0:
   6              		.align	2
   7              		.globl	_ZN9Scheduler3putEP7_thread
   9              	_ZN9Scheduler3putEP7_thread:
  10              	.LFB15:
  11              		.file 1 "src/Scheduler.cpp"
   1:src/Scheduler.cpp **** #include "../h/Scheduler.hpp"
   2:src/Scheduler.cpp **** 
   3:src/Scheduler.cpp **** ThreadList Scheduler::active;
   4:src/Scheduler.cpp **** 
   5:src/Scheduler.cpp **** void Scheduler::put(_thread *tcb) {
  12              		.loc 1 5 35
  13              		.cfi_startproc
  14              	.LVL0:
  15 0000 130101FE 		addi	sp,sp,-32
  16              		.cfi_def_cfa_offset 32
  17 0004 233C1100 		sd	ra,24(sp)
  18 0008 23388100 		sd	s0,16(sp)
  19 000c 23349100 		sd	s1,8(sp)
  20              		.cfi_offset 1, -8
  21              		.cfi_offset 8, -16
  22              		.cfi_offset 9, -24
  23 0010 13040102 		addi	s0,sp,32
  24              		.cfi_def_cfa 8, 0
  25 0014 93040500 		mv	s1,a0
   6:src/Scheduler.cpp ****     active.addTail(tcb);
  26              		.loc 1 6 5
  27              	.LVL1:
  28              	.LBB20:
  29              	.LBB21:
  30              		.file 2 "src/../h/ThreadList.hpp"
   1:src/../h/ThreadList.hpp **** //
   2:src/../h/ThreadList.hpp **** // Created by os on 6/26/24.
   3:src/../h/ThreadList.hpp **** //
   4:src/../h/ThreadList.hpp **** 
   5:src/../h/ThreadList.hpp **** #ifndef PROJECT_BASE_V1_1_THREADLIST_HPP
   6:src/../h/ThreadList.hpp **** #define PROJECT_BASE_V1_1_THREADLIST_HPP
   7:src/../h/ThreadList.hpp **** //#include "_thread.hpp"
   8:src/../h/ThreadList.hpp **** #include "MemAlloc.hpp"
   9:src/../h/ThreadList.hpp **** class _thread;
  10:src/../h/ThreadList.hpp **** class ThreadList{
  11:src/../h/ThreadList.hpp ****     struct Elem{
  12:src/../h/ThreadList.hpp ****         _thread* elem;
  13:src/../h/ThreadList.hpp ****         Elem* next;
  14:src/../h/ThreadList.hpp ****         Elem(_thread* elem) : elem(elem), next(nullptr){}
  15:src/../h/ThreadList.hpp ****         static void* operator new(size_t size){
  16:src/../h/ThreadList.hpp ****             return MemoryAllocator::mem_alloc(size);
  17:src/../h/ThreadList.hpp ****         }
  18:src/../h/ThreadList.hpp **** 
  19:src/../h/ThreadList.hpp ****         static void* operator new[](size_t size){
  20:src/../h/ThreadList.hpp ****             return MemoryAllocator::mem_alloc(size);
  21:src/../h/ThreadList.hpp ****         }
  22:src/../h/ThreadList.hpp **** 
GAS LISTING /tmp/ccBWRdXi.s 			page 2


  23:src/../h/ThreadList.hpp ****         static void operator delete (void* prt){
  24:src/../h/ThreadList.hpp ****             MemoryAllocator::mem_free(prt);
  25:src/../h/ThreadList.hpp ****         }
  26:src/../h/ThreadList.hpp **** 
  27:src/../h/ThreadList.hpp ****         static void operator delete[](void* ptr){
  28:src/../h/ThreadList.hpp ****             MemoryAllocator::mem_free(ptr);
  29:src/../h/ThreadList.hpp ****         }
  30:src/../h/ThreadList.hpp ****         //Write new and delete after mem_alloc()
  31:src/../h/ThreadList.hpp ****     };
  32:src/../h/ThreadList.hpp ****     Elem *head = nullptr, *tail = nullptr;
  33:src/../h/ThreadList.hpp **** public:
  34:src/../h/ThreadList.hpp **** 
  35:src/../h/ThreadList.hpp ****     void addTail(_thread* el){
  36:src/../h/ThreadList.hpp ****         Elem* elem = new Elem(el);
  31              		.loc 2 36 9
  32              	.LBB22:
  33              	.LBB23:
  16:src/../h/ThreadList.hpp ****         }
  34              		.loc 2 16 13
  16:src/../h/ThreadList.hpp ****         }
  35              		.loc 2 16 46 is_stmt 0
  36 0018 13050001 		li	a0,16
  37              	.LVL2:
  38 001c 97000000 		call	_ZN15MemoryAllocator9mem_allocEm@plt
  38      E7800000 
  39              	.LVL3:
  40              	.LBE23:
  41              	.LBE22:
  42              	.LBB24:
  43              	.LBB25:
  14:src/../h/ThreadList.hpp ****         static void* operator new(size_t size){
  44              		.loc 2 14 55
  45 0024 23309500 		sd	s1,0(a0)
  46 0028 23340500 		sd	zero,8(a0)
  47              	.LVL4:
  48              	.LBE25:
  49              	.LBE24:
  37:src/../h/ThreadList.hpp ****         if(tail != nullptr){
  50              		.loc 2 37 9 is_stmt 1
  51              		.loc 2 37 12 is_stmt 0
  52 002c 97070000 		ld	a5,.LANCHOR0+8
  52      83B70700 
  53              		.loc 2 37 9
  54 0034 63820702 		beqz	a5,.L2
  38:src/../h/ThreadList.hpp ****             tail->next = elem;
  55              		.loc 2 38 13 is_stmt 1
  56              		.loc 2 38 24 is_stmt 0
  57 0038 23B4A700 		sd	a0,8(a5)
  39:src/../h/ThreadList.hpp ****             tail = elem;
  58              		.loc 2 39 13 is_stmt 1
  59              		.loc 2 39 18 is_stmt 0
  60 003c 97070000 		sd	a0,.LANCHOR0+8,a5
  60      23B0A700 
  61              	.LVL5:
  62              	.L1:
  63              	.LBE21:
  64              	.LBE20:
GAS LISTING /tmp/ccBWRdXi.s 			page 3


   7:src/Scheduler.cpp **** }
  65              		.loc 1 7 1
  66 0044 83308101 		ld	ra,24(sp)
  67              		.cfi_remember_state
  68              		.cfi_restore 1
  69 0048 03340101 		ld	s0,16(sp)
  70              		.cfi_restore 8
  71              		.cfi_def_cfa 2, 32
  72 004c 83348100 		ld	s1,8(sp)
  73              		.cfi_restore 9
  74              	.LVL6:
  75 0050 13010102 		addi	sp,sp,32
  76              		.cfi_def_cfa_offset 0
  77 0054 67800000 		jr	ra
  78              	.LVL7:
  79              	.L2:
  80              		.cfi_restore_state
  81              	.LBB27:
  82              	.LBB26:
  40:src/../h/ThreadList.hpp ****         } else {
  41:src/../h/ThreadList.hpp ****             head = elem;
  83              		.loc 2 41 13 is_stmt 1
  84              		.loc 2 41 18 is_stmt 0
  85 0058 97070000 		lla	a5,.LANCHOR0
  85      93870700 
  86 0060 23B0A700 		sd	a0,0(a5)
  42:src/../h/ThreadList.hpp ****             tail = elem;
  87              		.loc 2 42 13 is_stmt 1
  88              		.loc 2 42 18 is_stmt 0
  89 0064 23B4A700 		sd	a0,8(a5)
  90              	.LVL8:
  91              	.LBE26:
  92              	.LBE27:
  93              		.loc 1 7 1
  94 0068 6FF0DFFD 		j	.L1
  95              		.cfi_endproc
  96              	.LFE15:
  98              		.align	2
  99              		.globl	_ZN9Scheduler3getEv
 101              	_ZN9Scheduler3getEv:
 102              	.LFB16:
   8:src/Scheduler.cpp **** 
   9:src/Scheduler.cpp **** _thread *Scheduler::get() {
 103              		.loc 1 9 27 is_stmt 1
 104              		.cfi_startproc
 105 006c 130101FE 		addi	sp,sp,-32
 106              		.cfi_def_cfa_offset 32
 107 0070 233C1100 		sd	ra,24(sp)
 108 0074 23388100 		sd	s0,16(sp)
 109 0078 23349100 		sd	s1,8(sp)
 110              		.cfi_offset 1, -8
 111              		.cfi_offset 8, -16
 112              		.cfi_offset 9, -24
 113 007c 13040102 		addi	s0,sp,32
 114              		.cfi_def_cfa 8, 0
  10:src/Scheduler.cpp ****     _thread* ret = active.popHead();
 115              		.loc 1 10 5
GAS LISTING /tmp/ccBWRdXi.s 			page 4


 116              	.LVL9:
 117              	.LBB28:
 118              	.LBB29:
  43:src/../h/ThreadList.hpp ****         }
  44:src/../h/ThreadList.hpp ****     }
  45:src/../h/ThreadList.hpp **** 
  46:src/../h/ThreadList.hpp ****     _thread* popHead(){
  47:src/../h/ThreadList.hpp ****         if(!head) return 0;
 119              		.loc 2 47 9
 120              		.loc 2 47 13 is_stmt 0
 121 0080 17050000 		ld	a0,.LANCHOR0
 121      03350500 
 122              		.loc 2 47 9
 123 0088 63020504 		beqz	a0,.L8
  48:src/../h/ThreadList.hpp ****         Elem* curr = head;
 124              		.loc 2 48 9 is_stmt 1
 125              	.LVL10:
  49:src/../h/ThreadList.hpp **** 
  50:src/../h/ThreadList.hpp ****         head = head->next;
 126              		.loc 2 50 9
 127              		.loc 2 50 22 is_stmt 0
 128 008c 83378500 		ld	a5,8(a0)
 129              		.loc 2 50 14
 130 0090 17070000 		sd	a5,.LANCHOR0,a4
 130      2330F700 
  51:src/../h/ThreadList.hpp ****         if(head == nullptr){tail = nullptr;}
 131              		.loc 2 51 9 is_stmt 1
 132 0098 63840702 		beqz	a5,.L10
 133              	.L7:
  52:src/../h/ThreadList.hpp ****         _thread* ret = curr->elem;
 134              		.loc 2 52 9
 135              		.loc 2 52 18 is_stmt 0
 136 009c 83340500 		ld	s1,0(a0)
 137              	.LVL11:
  53:src/../h/ThreadList.hpp ****         delete curr;
 138              		.loc 2 53 9 is_stmt 1
 139              	.LBB30:
 140              	.LBB31:
  24:src/../h/ThreadList.hpp ****         }
 141              		.loc 2 24 13
  24:src/../h/ThreadList.hpp ****         }
 142              		.loc 2 24 38 is_stmt 0
 143 00a0 97000000 		call	_ZN15MemoryAllocator8mem_freeEPv@plt
 143      E7800000 
 144              	.LVL12:
 145              	.LBE31:
 146              	.LBE30:
  54:src/../h/ThreadList.hpp ****         return ret;
 147              		.loc 2 54 9 is_stmt 1
 148              	.L5:
 149              	.LBE29:
 150              	.LBE28:
  11:src/Scheduler.cpp ****     return ret;
  12:src/Scheduler.cpp **** }
 151              		.loc 1 12 1 is_stmt 0
 152 00a8 13850400 		mv	a0,s1
 153 00ac 83308101 		ld	ra,24(sp)
GAS LISTING /tmp/ccBWRdXi.s 			page 5


 154              		.cfi_remember_state
 155              		.cfi_restore 1
 156 00b0 03340101 		ld	s0,16(sp)
 157              		.cfi_restore 8
 158              		.cfi_def_cfa 2, 32
 159 00b4 83348100 		ld	s1,8(sp)
 160              		.cfi_restore 9
 161 00b8 13010102 		addi	sp,sp,32
 162              		.cfi_def_cfa_offset 0
 163 00bc 67800000 		jr	ra
 164              	.LVL13:
 165              	.L10:
 166              		.cfi_restore_state
 167              	.LBB33:
 168              	.LBB32:
  51:src/../h/ThreadList.hpp ****         _thread* ret = curr->elem;
 169              		.loc 2 51 29 is_stmt 1
  51:src/../h/ThreadList.hpp ****         _thread* ret = curr->elem;
 170              		.loc 2 51 34 is_stmt 0
 171 00c0 97070000 		sd	zero,.LANCHOR0+8,a5
 171      23B00700 
 172 00c8 6FF05FFD 		j	.L7
 173              	.LVL14:
 174              	.L8:
  47:src/../h/ThreadList.hpp ****         Elem* curr = head;
 175              		.loc 2 47 26
 176 00cc 93040500 		mv	s1,a0
 177              	.LVL15:
 178              	.LBE32:
 179              	.LBE33:
  11:src/Scheduler.cpp ****     return ret;
 180              		.loc 1 11 5 is_stmt 1
  11:src/Scheduler.cpp ****     return ret;
 181              		.loc 1 11 12 is_stmt 0
 182 00d0 6FF09FFD 		j	.L5
 183              		.cfi_endproc
 184              	.LFE16:
 186              		.globl	_ZN9Scheduler6activeE
 187              		.bss
 188              		.align	3
 189              		.set	.LANCHOR0,. + 0
 192              	_ZN9Scheduler6activeE:
 193 0000 00000000 		.zero	16
 193      00000000 
 193      00000000 
 193      00000000 
 194              		.text
 195              	.Letext0:
 196              		.file 3 "src/../h/../lib/hw.h"
 197              		.file 4 "src/../h/MemAlloc.hpp"
 198              		.file 5 "src/../h/Scheduler.hpp"
GAS LISTING /tmp/ccBWRdXi.s 			page 6


DEFINED SYMBOLS
                            *ABS*:0000000000000000 Scheduler.cpp
     /tmp/ccBWRdXi.s:9      .text:0000000000000000 _ZN9Scheduler3putEP7_thread
     /tmp/ccBWRdXi.s:13     .text:0000000000000000 .L0 
     /tmp/ccBWRdXi.s:15     .text:0000000000000000 .L0 
     /tmp/ccBWRdXi.s:16     .text:0000000000000004 .L0 
     /tmp/ccBWRdXi.s:20     .text:0000000000000010 .L0 
     /tmp/ccBWRdXi.s:21     .text:0000000000000010 .L0 
     /tmp/ccBWRdXi.s:22     .text:0000000000000010 .L0 
     /tmp/ccBWRdXi.s:24     .text:0000000000000014 .L0 
     /tmp/ccBWRdXi.s:31     .text:0000000000000018 .L0 
     /tmp/ccBWRdXi.s:34     .text:0000000000000018 .L0 
     /tmp/ccBWRdXi.s:35     .text:0000000000000018 .L0 
     /tmp/ccBWRdXi.s:36     .text:0000000000000018 .L0 
     /tmp/ccBWRdXi.s:45     .text:0000000000000024 .L0 
     /tmp/ccBWRdXi.s:51     .text:000000000000002c .L0 
     /tmp/ccBWRdXi.s:52     .text:000000000000002c .L0 
     /tmp/ccBWRdXi.s:54     .text:0000000000000034 .L0 
     /tmp/ccBWRdXi.s:56     .text:0000000000000038 .L0 
     /tmp/ccBWRdXi.s:57     .text:0000000000000038 .L0 
     /tmp/ccBWRdXi.s:59     .text:000000000000003c .L0 
     /tmp/ccBWRdXi.s:60     .text:000000000000003c .L0 
     /tmp/ccBWRdXi.s:66     .text:0000000000000044 .L0 
     /tmp/ccBWRdXi.s:67     .text:0000000000000048 .L0 
     /tmp/ccBWRdXi.s:68     .text:0000000000000048 .L0 
     /tmp/ccBWRdXi.s:70     .text:000000000000004c .L0 
     /tmp/ccBWRdXi.s:71     .text:000000000000004c .L0 
     /tmp/ccBWRdXi.s:73     .text:0000000000000050 .L0 
     /tmp/ccBWRdXi.s:76     .text:0000000000000054 .L0 
     /tmp/ccBWRdXi.s:80     .text:0000000000000058 .L0 
     /tmp/ccBWRdXi.s:84     .text:0000000000000058 .L0 
     /tmp/ccBWRdXi.s:85     .text:0000000000000058 .L0 
     /tmp/ccBWRdXi.s:88     .text:0000000000000064 .L0 
     /tmp/ccBWRdXi.s:89     .text:0000000000000064 .L0 
     /tmp/ccBWRdXi.s:94     .text:0000000000000068 .L0 
     /tmp/ccBWRdXi.s:95     .text:000000000000006c .L0 
     /tmp/ccBWRdXi.s:101    .text:000000000000006c _ZN9Scheduler3getEv
     /tmp/ccBWRdXi.s:104    .text:000000000000006c .L0 
     /tmp/ccBWRdXi.s:105    .text:000000000000006c .L0 
     /tmp/ccBWRdXi.s:106    .text:0000000000000070 .L0 
     /tmp/ccBWRdXi.s:110    .text:000000000000007c .L0 
     /tmp/ccBWRdXi.s:111    .text:000000000000007c .L0 
     /tmp/ccBWRdXi.s:112    .text:000000000000007c .L0 
     /tmp/ccBWRdXi.s:114    .text:0000000000000080 .L0 
     /tmp/ccBWRdXi.s:119    .text:0000000000000080 .L0 
     /tmp/ccBWRdXi.s:120    .text:0000000000000080 .L0 
     /tmp/ccBWRdXi.s:121    .text:0000000000000080 .L0 
     /tmp/ccBWRdXi.s:123    .text:0000000000000088 .L0 
     /tmp/ccBWRdXi.s:126    .text:000000000000008c .L0 
     /tmp/ccBWRdXi.s:127    .text:000000000000008c .L0 
     /tmp/ccBWRdXi.s:128    .text:000000000000008c .L0 
     /tmp/ccBWRdXi.s:130    .text:0000000000000090 .L0 
     /tmp/ccBWRdXi.s:132    .text:0000000000000098 .L0 
     /tmp/ccBWRdXi.s:135    .text:000000000000009c .L0 
     /tmp/ccBWRdXi.s:136    .text:000000000000009c .L0 
     /tmp/ccBWRdXi.s:141    .text:00000000000000a0 .L0 
     /tmp/ccBWRdXi.s:142    .text:00000000000000a0 .L0 
GAS LISTING /tmp/ccBWRdXi.s 			page 7


     /tmp/ccBWRdXi.s:143    .text:00000000000000a0 .L0 
     /tmp/ccBWRdXi.s:151    .text:00000000000000a8 .L0 
     /tmp/ccBWRdXi.s:152    .text:00000000000000a8 .L0 
     /tmp/ccBWRdXi.s:154    .text:00000000000000b0 .L0 
     /tmp/ccBWRdXi.s:155    .text:00000000000000b0 .L0 
     /tmp/ccBWRdXi.s:157    .text:00000000000000b4 .L0 
     /tmp/ccBWRdXi.s:158    .text:00000000000000b4 .L0 
     /tmp/ccBWRdXi.s:160    .text:00000000000000b8 .L0 
     /tmp/ccBWRdXi.s:162    .text:00000000000000bc .L0 
     /tmp/ccBWRdXi.s:166    .text:00000000000000c0 .L0 
     /tmp/ccBWRdXi.s:170    .text:00000000000000c0 .L0 
     /tmp/ccBWRdXi.s:171    .text:00000000000000c0 .L0 
     /tmp/ccBWRdXi.s:176    .text:00000000000000cc .L0 
     /tmp/ccBWRdXi.s:181    .text:00000000000000d0 .L0 
     /tmp/ccBWRdXi.s:182    .text:00000000000000d0 .L0 
     /tmp/ccBWRdXi.s:183    .text:00000000000000d4 .L0 
     /tmp/ccBWRdXi.s:192    .bss:0000000000000000 _ZN9Scheduler6activeE
     /tmp/ccBWRdXi.s:189    .bss:0000000000000000 .LANCHOR0
     /tmp/ccBWRdXi.s:199    .text:00000000000000d4 .L0 
     /tmp/ccBWRdXi.s:52     .text:000000000000002c .L0 
     /tmp/ccBWRdXi.s:60     .text:000000000000003c .L0 
     /tmp/ccBWRdXi.s:85     .text:0000000000000058 .L0 
     /tmp/ccBWRdXi.s:121    .text:0000000000000080 .L0 
     /tmp/ccBWRdXi.s:130    .text:0000000000000090 .L0 
     /tmp/ccBWRdXi.s:171    .text:00000000000000c0 .L0 
     /tmp/ccBWRdXi.s:79     .text:0000000000000058 .L2
     /tmp/ccBWRdXi.s:62     .text:0000000000000044 .L1
     /tmp/ccBWRdXi.s:174    .text:00000000000000cc .L8
     /tmp/ccBWRdXi.s:165    .text:00000000000000c0 .L10
     /tmp/ccBWRdXi.s:133    .text:000000000000009c .L7
     /tmp/ccBWRdXi.s:148    .text:00000000000000a8 .L5
     /tmp/ccBWRdXi.s:881    .debug_abbrev:0000000000000000 .Ldebug_abbrev0
     /tmp/ccBWRdXi.s:1987   .debug_str:0000000000000268 .LASF52
     /tmp/ccBWRdXi.s:1995   .debug_str:000000000000033e .LASF53
     /tmp/ccBWRdXi.s:1979   .debug_str:000000000000022d .LASF54
     /tmp/ccBWRdXi.s:5      .text:0000000000000000 .Ltext0
     /tmp/ccBWRdXi.s:195    .text:00000000000000d4 .Letext0
     /tmp/ccBWRdXi.s:1915   .debug_line:0000000000000000 .Ldebug_line0
     /tmp/ccBWRdXi.s:1997   .debug_str:0000000000000350 .LASF0
     /tmp/ccBWRdXi.s:1977   .debug_str:000000000000021a .LASF1
     /tmp/ccBWRdXi.s:1963   .debug_str:0000000000000182 .LASF2
     /tmp/ccBWRdXi.s:1939   .debug_str:00000000000000ac .LASF4
     /tmp/ccBWRdXi.s:1973   .debug_str:00000000000001f3 .LASF3
     /tmp/ccBWRdXi.s:1923   .debug_str:000000000000003d .LASF5
     /tmp/ccBWRdXi.s:1919   .debug_str:000000000000001a .LASF6
     /tmp/ccBWRdXi.s:1957   .debug_str:000000000000013f .LASF7
     /tmp/ccBWRdXi.s:2001   .debug_str:000000000000036d .LASF8
     /tmp/ccBWRdXi.s:1935   .debug_str:0000000000000084 .LASF9
     /tmp/ccBWRdXi.s:2051   .debug_str:000000000000051b .LASF10
     /tmp/ccBWRdXi.s:1959   .debug_str:0000000000000152 .LASF11
     /tmp/ccBWRdXi.s:2035   .debug_str:000000000000048a .LASF12
     /tmp/ccBWRdXi.s:2013   .debug_str:00000000000003e0 .LASF13
     /tmp/ccBWRdXi.s:1967   .debug_str:00000000000001b1 .LASF14
     /tmp/ccBWRdXi.s:1951   .debug_str:00000000000000fd .LASF15
     /tmp/ccBWRdXi.s:2005   .debug_str:0000000000000388 .LASF16
     /tmp/ccBWRdXi.s:1985   .debug_str:000000000000025e .LASF27
     /tmp/ccBWRdXi.s:1925   .debug_str:0000000000000044 .LASF17
GAS LISTING /tmp/ccBWRdXi.s 			page 8


     /tmp/ccBWRdXi.s:2045   .debug_str:00000000000004cb .LASF18
     /tmp/ccBWRdXi.s:1921   .debug_str:000000000000002d .LASF25
     /tmp/ccBWRdXi.s:1943   .debug_str:00000000000000b8 .LASF19
     /tmp/ccBWRdXi.s:1981   .debug_str:000000000000024d .LASF20
     /tmp/ccBWRdXi.s:2041   .debug_str:00000000000004b1 .LASF21
     /tmp/ccBWRdXi.s:2029   .debug_str:0000000000000443 .LASF23
     /tmp/ccBWRdXi.s:2015   .debug_str:00000000000003f0 .LASF22
     /tmp/ccBWRdXi.s:1961   .debug_str:0000000000000161 .LASF24
     /tmp/ccBWRdXi.s:2033   .debug_str:000000000000047a .LASF30
     /tmp/ccBWRdXi.s:2049   .debug_str:00000000000004e9 .LASF31
     /tmp/ccBWRdXi.s:1949   .debug_str:00000000000000f8 .LASF55
     /tmp/ccBWRdXi.s:2009   .debug_str:00000000000003a3 .LASF56
     /tmp/ccBWRdXi.s:2003   .debug_str:000000000000037d .LASF26
     /tmp/ccBWRdXi.s:2007   .debug_str:000000000000039e .LASF28
     /tmp/ccBWRdXi.s:1989   .debug_str:000000000000032c .LASF29
     /tmp/ccBWRdXi.s:1945   .debug_str:00000000000000c2 .LASF32
     /tmp/ccBWRdXi.s:2039   .debug_str:00000000000004a4 .LASF33
     /tmp/ccBWRdXi.s:2047   .debug_str:00000000000004d0 .LASF34
     /tmp/ccBWRdXi.s:2043   .debug_str:00000000000004bb .LASF35
     /tmp/ccBWRdXi.s:2017   .debug_str:00000000000003f9 .LASF36
     /tmp/ccBWRdXi.s:1999   .debug_str:000000000000035d .LASF57
     /tmp/ccBWRdXi.s:1971   .debug_str:00000000000001d9 .LASF58
     /tmp/ccBWRdXi.s:2021   .debug_str:000000000000041b .LASF59
     /tmp/ccBWRdXi.s:1917   .debug_str:0000000000000000 .LASF60
     /tmp/ccBWRdXi.s:1993   .debug_str:0000000000000339 .LASF37
     /tmp/ccBWRdXi.s:2025   .debug_str:0000000000000436 .LASF38
     /tmp/ccBWRdXi.s:1991   .debug_str:0000000000000331 .LASF39
     /tmp/ccBWRdXi.s:1953   .debug_str:0000000000000113 .LASF40
     /tmp/ccBWRdXi.s:2027   .debug_str:000000000000043b .LASF41
     /tmp/ccBWRdXi.s:1937   .debug_str:0000000000000092 .LASF43
     /tmp/ccBWRdXi.s:2019   .debug_str:0000000000000412 .LASF42
     /tmp/ccBWRdXi.s:1927   .debug_str:0000000000000049 .LASF44
     /tmp/ccBWRdXi.s:1983   .debug_str:0000000000000257 .LASF45
     /tmp/ccBWRdXi.s:1965   .debug_str:0000000000000190 .LASF46
     /tmp/ccBWRdXi.s:2023   .debug_str:000000000000042e .LASF61
     /tmp/ccBWRdXi.s:1955   .debug_str:0000000000000135 .LASF47
     /tmp/ccBWRdXi.s:1969   .debug_str:00000000000001bd .LASF62
     /tmp/ccBWRdXi.s:1933   .debug_str:0000000000000070 .LASF63
     /tmp/ccBWRdXi.s:1975   .debug_str:0000000000000205 .LASF48
     /tmp/ccBWRdXi.s:2037   .debug_str:000000000000049a .LASF64
     /tmp/ccBWRdXi.s:1947   .debug_str:00000000000000e3 .LASF65
     /tmp/ccBWRdXi.s:1931   .debug_str:0000000000000069 .LASF49
     /tmp/ccBWRdXi.s:2031   .debug_str:0000000000000464 .LASF66
     /tmp/ccBWRdXi.s:102    .text:000000000000006c .LFB16
     /tmp/ccBWRdXi.s:184    .text:00000000000000d4 .LFE16
     /tmp/ccBWRdXi.s:117    .text:0000000000000080 .LBB28
     /tmp/ccBWRdXi.s:1901   .debug_ranges:0000000000000000 .Ldebug_ranges0
     /tmp/ccBWRdXi.s:1774   .debug_loc:0000000000000000 .LLST6
     /tmp/ccBWRdXi.s:1789   .debug_loc:0000000000000048 .LLST7
     /tmp/ccBWRdXi.s:1800   .debug_loc:000000000000007e .LLST8
     /tmp/ccBWRdXi.s:139    .text:00000000000000a0 .LBB30
     /tmp/ccBWRdXi.s:146    .text:00000000000000a8 .LBE30
     /tmp/ccBWRdXi.s:1807   .debug_loc:00000000000000a1 .LLST9
     /tmp/ccBWRdXi.s:144    .text:00000000000000a8 .LVL12
     /tmp/ccBWRdXi.s:10     .text:0000000000000000 .LFB15
     /tmp/ccBWRdXi.s:96     .text:000000000000006c .LFE15
     /tmp/ccBWRdXi.s:1814   .debug_loc:00000000000000c4 .LLST0
GAS LISTING /tmp/ccBWRdXi.s 			page 9


     /tmp/ccBWRdXi.s:28     .text:0000000000000018 .LBB20
     /tmp/ccBWRdXi.s:1836   .debug_loc:0000000000000123 .LLST1
     /tmp/ccBWRdXi.s:1851   .debug_loc:000000000000016c .LLST2
     /tmp/ccBWRdXi.s:32     .text:0000000000000018 .LBB22
     /tmp/ccBWRdXi.s:41     .text:0000000000000024 .LBE22
     /tmp/ccBWRdXi.s:1866   .debug_loc:00000000000001b4 .LLST3
     /tmp/ccBWRdXi.s:39     .text:0000000000000024 .LVL3
     /tmp/ccBWRdXi.s:42     .text:0000000000000024 .LBB24
     /tmp/ccBWRdXi.s:49     .text:000000000000002c .LBE24
     /tmp/ccBWRdXi.s:1874   .debug_loc:00000000000001d8 .LLST4
     /tmp/ccBWRdXi.s:1881   .debug_loc:00000000000001fb .LLST5
     /tmp/ccBWRdXi.s:1941   .debug_str:00000000000000b3 .LASF51
     /tmp/ccBWRdXi.s:1929   .debug_str:0000000000000064 .LASF50
     /tmp/ccBWRdXi.s:2011   .debug_str:00000000000003bf .LASF67
     /tmp/ccBWRdXi.s:116    .text:0000000000000080 .LVL9
     /tmp/ccBWRdXi.s:164    .text:00000000000000c0 .LVL13
     /tmp/ccBWRdXi.s:177    .text:00000000000000d0 .LVL15
     /tmp/ccBWRdXi.s:125    .text:000000000000008c .LVL10
     /tmp/ccBWRdXi.s:173    .text:00000000000000cc .LVL14
     /tmp/ccBWRdXi.s:137    .text:00000000000000a0 .LVL11
     /tmp/ccBWRdXi.s:14     .text:0000000000000000 .LVL0
     /tmp/ccBWRdXi.s:37     .text:000000000000001c .LVL2
     /tmp/ccBWRdXi.s:74     .text:0000000000000050 .LVL6
     /tmp/ccBWRdXi.s:78     .text:0000000000000058 .LVL7
     /tmp/ccBWRdXi.s:27     .text:0000000000000018 .LVL1
     /tmp/ccBWRdXi.s:61     .text:0000000000000044 .LVL5
     /tmp/ccBWRdXi.s:90     .text:0000000000000068 .LVL8
     /tmp/ccBWRdXi.s:47     .text:000000000000002c .LVL4
     /tmp/ccBWRdXi.s:200    .debug_info:0000000000000000 .Ldebug_info0
     /tmp/ccBWRdXi.s:64     .text:0000000000000044 .LBE20
     /tmp/ccBWRdXi.s:81     .text:0000000000000058 .LBB27
     /tmp/ccBWRdXi.s:92     .text:0000000000000068 .LBE27
     /tmp/ccBWRdXi.s:150    .text:00000000000000a8 .LBE28
     /tmp/ccBWRdXi.s:167    .text:00000000000000c0 .LBB33
     /tmp/ccBWRdXi.s:179    .text:00000000000000d0 .LBE33

UNDEFINED SYMBOLS
_ZN15MemoryAllocator9mem_allocEm
_ZN15MemoryAllocator8mem_freeEPv
