GAS LISTING /tmp/ccIxUB04.s 			page 1


   1              		.file	"SleepingList.cpp"
   2              		.option pic
   3              		.option norelax
   4              		.text
   5              	.Ltext0:
   6              		.align	2
   7              		.globl	_ZN12SleepingList11wakeThreadsEv
   9              	_ZN12SleepingList11wakeThreadsEv:
  10              	.LFB54:
  11              		.file 1 "src/SleepingList.cpp"
   1:src/SleepingList.cpp **** #include "../h/SleepingList.hpp"
   2:src/SleepingList.cpp **** 
   3:src/SleepingList.cpp **** void SleepingList::wakeThreads() {
  12              		.loc 1 3 34
  13              		.cfi_startproc
  14              	.LVL0:
  15 0000 130101FE 		addi	sp,sp,-32
  16              		.cfi_def_cfa_offset 32
  17 0004 233C1100 		sd	ra,24(sp)
  18 0008 23388100 		sd	s0,16(sp)
  19 000c 23349100 		sd	s1,8(sp)
  20 0010 23302101 		sd	s2,0(sp)
  21              		.cfi_offset 1, -8
  22              		.cfi_offset 8, -16
  23              		.cfi_offset 9, -24
  24              		.cfi_offset 18, -32
  25 0014 13040102 		addi	s0,sp,32
  26              		.cfi_def_cfa 8, 0
  27 0018 13090500 		mv	s2,a0
  28 001c 6F00C002 		j	.L2
  29              	.LVL1:
  30              	.L9:
  31              	.LBB15:
   4:src/SleepingList.cpp ****     while (head != nullptr && head->relativeTime == 0){
   5:src/SleepingList.cpp ****         Elem* curr = head;
   6:src/SleepingList.cpp ****         head = head->next;
   7:src/SleepingList.cpp ****         if (!head) { tail = nullptr; }
  32              		.loc 1 7 22 discriminator 1
  33              		.loc 1 7 27 is_stmt 0 discriminator 1
  34 0020 23340900 		sd	zero,8(s2)
  35 0024 6F000004 		j	.L4
  36              	.L10:
   8:src/SleepingList.cpp ****         if(curr->thread->isSleeping()) {
   9:src/SleepingList.cpp ****             curr->thread->setSleepWait(false);
  37              		.loc 1 9 13 is_stmt 1
  38              	.LVL2:
  39              	.LBB16:
  40              	.LBB17:
  41              		.file 2 "src/../h/_thread.hpp"
   1:src/../h/_thread.hpp **** //
   2:src/../h/_thread.hpp **** // Created by os on 5/20/24.
   3:src/../h/_thread.hpp **** //
   4:src/../h/_thread.hpp **** 
   5:src/../h/_thread.hpp **** #ifndef PROJECT_BASE_V1_1__THREAD_HPP
   6:src/../h/_thread.hpp **** #define PROJECT_BASE_V1_1__THREAD_HPP
   7:src/../h/_thread.hpp **** #include "RISCV.hpp"
   8:src/../h/_thread.hpp **** #include "../lib/hw.h"
GAS LISTING /tmp/ccIxUB04.s 			page 2


   9:src/../h/_thread.hpp **** #include "MemAlloc.hpp"
  10:src/../h/_thread.hpp **** #include "Scheduler.hpp"
  11:src/../h/_thread.hpp **** 
  12:src/../h/_thread.hpp **** int main(int, char**);
  13:src/../h/_thread.hpp **** 
  14:src/../h/_thread.hpp **** void userMain(void*);
  15:src/../h/_thread.hpp **** 
  16:src/../h/_thread.hpp **** class _thread{
  17:src/../h/_thread.hpp **** public:
  18:src/../h/_thread.hpp ****     using Func = void(*)(void*);
  19:src/../h/_thread.hpp ****     friend class RISCV;
  20:src/../h/_thread.hpp ****     struct Context{
  21:src/../h/_thread.hpp ****         uint64 ra;
  22:src/../h/_thread.hpp ****         uint64 sp;
  23:src/../h/_thread.hpp ****     };
  24:src/../h/_thread.hpp ****     Func body;
  25:src/../h/_thread.hpp ****     Context context;
  26:src/../h/_thread.hpp ****     void* args;
  27:src/../h/_thread.hpp ****     bool blocked;
  28:src/../h/_thread.hpp ****     bool finished;
  29:src/../h/_thread.hpp ****     bool timedWait;
  30:src/../h/_thread.hpp ****     bool isAdmin;
  31:src/../h/_thread.hpp ****     bool sleepWait = false;
  32:src/../h/_thread.hpp ****     uint64 timeSlice;
  33:src/../h/_thread.hpp ****     uint64* stack;
  34:src/../h/_thread.hpp ****     _sem* mySem = nullptr;
  35:src/../h/_thread.hpp **** 
  36:src/../h/_thread.hpp **** 
  37:src/../h/_thread.hpp **** public:
  38:src/../h/_thread.hpp **** 
  39:src/../h/_thread.hpp ****     static void outputThread(void *);
  40:src/../h/_thread.hpp **** 
  41:src/../h/_thread.hpp ****     static void wrapper();
  42:src/../h/_thread.hpp **** 
  43:src/../h/_thread.hpp ****     static _thread* running;
  44:src/../h/_thread.hpp ****     static uint64 runningTimeSlice;
  45:src/../h/_thread.hpp **** 
  46:src/../h/_thread.hpp **** 
  47:src/../h/_thread.hpp ****     _thread(Func body, void* args, uint64 mra);
  48:src/../h/_thread.hpp ****     bool isBlocked(){return blocked;}
  49:src/../h/_thread.hpp ****     bool isTimedWait(){return timedWait;}
  50:src/../h/_thread.hpp ****     bool isFinished(){return finished;}
  51:src/../h/_thread.hpp ****     bool isSleeping(){return sleepWait;}
  52:src/../h/_thread.hpp **** 
  53:src/../h/_thread.hpp **** 
  54:src/../h/_thread.hpp ****     static _thread* createThread(Func func, void* args, uint64 mra);
  55:src/../h/_thread.hpp **** 
  56:src/../h/_thread.hpp ****     static void switchContext(Context* old, Context* newC);
  57:src/../h/_thread.hpp **** 
  58:src/../h/_thread.hpp ****     static void dispatch();
  59:src/../h/_thread.hpp **** 
  60:src/../h/_thread.hpp **** 
  61:src/../h/_thread.hpp ****     void* operator new(size_t size){
  62:src/../h/_thread.hpp ****         return MemoryAllocator::mem_alloc(size);
  63:src/../h/_thread.hpp ****     }
  64:src/../h/_thread.hpp **** 
  65:src/../h/_thread.hpp **** 
GAS LISTING /tmp/ccIxUB04.s 			page 3


  66:src/../h/_thread.hpp ****     void operator delete (void* ptr){
  67:src/../h/_thread.hpp ****         MemoryAllocator::mem_free(ptr);
  68:src/../h/_thread.hpp ****     }
  69:src/../h/_thread.hpp **** 
  70:src/../h/_thread.hpp **** 
  71:src/../h/_thread.hpp ****     void setBlocked(bool blck){blocked = blck;}
  72:src/../h/_thread.hpp ****     void setTimedWait(bool tmdw){timedWait = tmdw;}
  73:src/../h/_thread.hpp ****     void setSleepWait(bool sleep){sleepWait = sleep;}
  42              		.loc 2 73 35
  43              		.loc 2 73 45 is_stmt 0
  44 0028 23820702 		sb	zero,36(a5)
  45              	.LVL3:
  46              	.LBE17:
  47              	.LBE16:
  10:src/SleepingList.cpp ****             Scheduler::put(curr->thread);
  48              		.loc 1 10 13 is_stmt 1
  49              		.loc 1 10 27 is_stmt 0
  50 002c 03B50400 		ld	a0,0(s1)
  51 0030 97000000 		call	_ZN9Scheduler3putEP7_thread@plt
  51      E7800000 
  52              	.LVL4:
  11:src/SleepingList.cpp ****             delete curr;
  53              		.loc 1 11 13 is_stmt 1
  54              		.loc 1 11 24 is_stmt 0
  55 0038 63880400 		beqz	s1,.L2
  56              	.LVL5:
  57              	.LBB18:
  58              	.LBB19:
  59              		.file 3 "src/../h/SleepingList.hpp"
   1:src/../h/SleepingList.hpp **** 
   2:src/../h/SleepingList.hpp **** 
   3:src/../h/SleepingList.hpp **** #ifndef PROJECT_BASE_V1_1_SLEEPINGLIST_HPP
   4:src/../h/SleepingList.hpp **** #define PROJECT_BASE_V1_1_SLEEPINGLIST_HPP
   5:src/../h/SleepingList.hpp **** #include "Scheduler.hpp"
   6:src/../h/SleepingList.hpp **** #include "_thread.hpp"
   7:src/../h/SleepingList.hpp **** #include "MemAlloc.hpp"
   8:src/../h/SleepingList.hpp **** class SleepingList {
   9:src/../h/SleepingList.hpp ****     struct Elem{
  10:src/../h/SleepingList.hpp ****         _thread* thread;
  11:src/../h/SleepingList.hpp ****         time_t relativeTime;
  12:src/../h/SleepingList.hpp ****         Elem* next;
  13:src/../h/SleepingList.hpp ****         Elem(_thread* thread, time_t relativeTime, Elem* next) : thread(thread), relativeTime(relat
  14:src/../h/SleepingList.hpp **** 
  15:src/../h/SleepingList.hpp ****         static void* operator new(size_t size){
  16:src/../h/SleepingList.hpp ****             return MemoryAllocator::mem_alloc(size);
  17:src/../h/SleepingList.hpp ****         }
  18:src/../h/SleepingList.hpp **** 
  19:src/../h/SleepingList.hpp ****         static void* operator new[](size_t size){
  20:src/../h/SleepingList.hpp ****             return MemoryAllocator::mem_alloc(size);
  21:src/../h/SleepingList.hpp ****         }
  22:src/../h/SleepingList.hpp **** 
  23:src/../h/SleepingList.hpp ****         static void operator delete (void* prt){
  24:src/../h/SleepingList.hpp ****             MemoryAllocator::mem_free(prt);
  60              		.loc 3 24 13 is_stmt 1 discriminator 1
  61              		.loc 3 24 38 is_stmt 0 discriminator 1
  62 003c 13850400 		mv	a0,s1
  63 0040 97000000 		call	_ZN15MemoryAllocator8mem_freeEPv@plt
GAS LISTING /tmp/ccIxUB04.s 			page 4


  63      E7800000 
  64              	.LVL6:
  65              	.L2:
  66              	.LBE19:
  67              	.LBE18:
  68              	.LBE15:
   4:src/SleepingList.cpp ****         Elem* curr = head;
  69              		.loc 1 4 5 is_stmt 1
   4:src/SleepingList.cpp ****         Elem* curr = head;
  70              		.loc 1 4 28
   4:src/SleepingList.cpp ****         Elem* curr = head;
  71              		.loc 1 4 12 is_stmt 0
  72 0048 83340900 		ld	s1,0(s2)
   4:src/SleepingList.cpp ****         Elem* curr = head;
  73              		.loc 1 4 28
  74 004c 638C0404 		beqz	s1,.L1
   4:src/SleepingList.cpp ****         Elem* curr = head;
  75              		.loc 1 4 37 discriminator 1
  76 0050 83B78400 		ld	a5,8(s1)
   4:src/SleepingList.cpp ****         Elem* curr = head;
  77              		.loc 1 4 28 discriminator 1
  78 0054 63980704 		bnez	a5,.L1
  79              	.LBB28:
   5:src/SleepingList.cpp ****         head = head->next;
  80              		.loc 1 5 9 is_stmt 1
  81              	.LVL7:
   6:src/SleepingList.cpp ****         if (!head) { tail = nullptr; }
  82              		.loc 1 6 9
   6:src/SleepingList.cpp ****         if (!head) { tail = nullptr; }
  83              		.loc 1 6 22 is_stmt 0
  84 0058 83B70401 		ld	a5,16(s1)
   6:src/SleepingList.cpp ****         if (!head) { tail = nullptr; }
  85              		.loc 1 6 14
  86 005c 2330F900 		sd	a5,0(s2)
   7:src/SleepingList.cpp ****         if(curr->thread->isSleeping()) {
  87              		.loc 1 7 9 is_stmt 1
  88 0060 E38007FC 		beqz	a5,.L9
  89              	.L4:
   8:src/SleepingList.cpp ****             curr->thread->setSleepWait(false);
  90              		.loc 1 8 9
   8:src/SleepingList.cpp ****             curr->thread->setSleepWait(false);
  91              		.loc 1 8 18 is_stmt 0
  92 0064 83B70400 		ld	a5,0(s1)
  93              	.LVL8:
  94              	.LBB20:
  95              	.LBB21:
  51:src/../h/_thread.hpp **** 
  96              		.loc 2 51 23 is_stmt 1
  51:src/../h/_thread.hpp **** 
  97              		.loc 2 51 30 is_stmt 0
  98 0068 03C74702 		lbu	a4,36(a5)
  99              	.LVL9:
 100              	.LBE21:
 101              	.LBE20:
   8:src/SleepingList.cpp ****             curr->thread->setSleepWait(false);
 102              		.loc 1 8 9
 103 006c E31E07FA 		bnez	a4,.L10
GAS LISTING /tmp/ccIxUB04.s 			page 5


  12:src/SleepingList.cpp ****         } else if (curr->thread->isTimedWait()){
 104              		.loc 1 12 16 is_stmt 1
 105              	.LVL10:
 106              	.LBB22:
 107              	.LBB23:
  49:src/../h/_thread.hpp ****     bool isFinished(){return finished;}
 108              		.loc 2 49 24
  49:src/../h/_thread.hpp ****     bool isFinished(){return finished;}
 109              		.loc 2 49 31 is_stmt 0
 110 0070 03C72702 		lbu	a4,34(a5)
 111              	.LVL11:
 112              	.LBE23:
 113              	.LBE22:
 114              		.loc 1 12 16
 115 0074 E30A07FC 		beqz	a4,.L2
  13:src/SleepingList.cpp ****             curr->thread->setTimedWait(false);
 116              		.loc 1 13 13 is_stmt 1
 117              	.LVL12:
 118              	.LBB24:
 119              	.LBB25:
  72:src/../h/_thread.hpp ****     void setSleepWait(bool sleep){sleepWait = sleep;}
 120              		.loc 2 72 34
  72:src/../h/_thread.hpp ****     void setSleepWait(bool sleep){sleepWait = sleep;}
 121              		.loc 2 72 44 is_stmt 0
 122 0078 23810702 		sb	zero,34(a5)
 123              	.LVL13:
 124              	.LBE25:
 125              	.LBE24:
  14:src/SleepingList.cpp ****             if(curr->thread->mySem != nullptr){
 126              		.loc 1 14 13 is_stmt 1
 127              		.loc 1 14 22 is_stmt 0
 128 007c 83B50400 		ld	a1,0(s1)
 129              		.loc 1 14 30
 130 0080 03B58503 		ld	a0,56(a1)
 131              		.loc 1 14 13
 132 0084 63060500 		beqz	a0,.L7
  15:src/SleepingList.cpp ****                 curr->thread->mySem->deblockTimedWait(curr->thread);
 133              		.loc 1 15 17 is_stmt 1
 134              		.loc 1 15 54 is_stmt 0
 135 0088 97000000 		call	_ZN4_sem16deblockTimedWaitEP7_thread@plt
 135      E7800000 
 136              	.LVL14:
 137              	.L7:
  16:src/SleepingList.cpp ****             }
  17:src/SleepingList.cpp ****             delete curr;
 138              		.loc 1 17 13 is_stmt 1
 139              		.loc 1 17 24 is_stmt 0
 140 0090 E38C04FA 		beqz	s1,.L2
 141              	.LVL15:
 142              	.LBB26:
 143              	.LBB27:
 144              		.loc 3 24 13 is_stmt 1 discriminator 1
 145              		.loc 3 24 38 is_stmt 0 discriminator 1
 146 0094 13850400 		mv	a0,s1
 147 0098 97000000 		call	_ZN15MemoryAllocator8mem_freeEPv@plt
 147      E7800000 
 148              	.LVL16:
GAS LISTING /tmp/ccIxUB04.s 			page 6


  25:src/../h/SleepingList.hpp ****         }
 149              		.loc 3 25 9 discriminator 1
 150 00a0 6FF09FFA 		j	.L2
 151              	.LVL17:
 152              	.L1:
 153              	.LBE27:
 154              	.LBE26:
 155              	.LBE28:
  18:src/SleepingList.cpp ****         }
  19:src/SleepingList.cpp ****     }
  20:src/SleepingList.cpp **** }...
 156              		.loc 1 20 1
 157 00a4 83308101 		ld	ra,24(sp)
 158              		.cfi_restore 1
 159 00a8 03340101 		ld	s0,16(sp)
 160              		.cfi_restore 8
 161              		.cfi_def_cfa 2, 32
 162 00ac 83348100 		ld	s1,8(sp)
 163              		.cfi_restore 9
 164 00b0 03390100 		ld	s2,0(sp)
 165              		.cfi_restore 18
 166              	.LVL18:
 167 00b4 13010102 		addi	sp,sp,32
 168              		.cfi_def_cfa_offset 0
 169 00b8 67800000 		jr	ra
 170              		.cfi_endproc
 171              	.LFE54:
 173              	.Letext0:
 174              		.file 4 "src/../h/../lib/hw.h"
 175              		.file 5 "src/../h/MemAlloc.hpp"
 176              		.file 6 "src/../h/ThreadList.hpp"
 177              		.file 7 "src/../h/Scheduler.hpp"
 178              		.file 8 "src/../h/syscall_c.h"
 179              		.file 9 "src/../h/_sem.hpp"
GAS LISTING /tmp/ccIxUB04.s 			page 7

