GAS LISTING /tmp/cc6SGE6u.s 			page 1


   1              		.file	"syscall_cpp.cpp"
   2              		.option pic
   3              		.option norelax
   4              		.text
   5              	.Ltext0:
   6              		.section	.text._ZN6Thread3runEv,"axG",@progbits,_ZN6Thread3runEv,comdat
   7              		.align	2
   8              		.weak	_ZN6Thread3runEv
  10              	_ZN6Thread3runEv:
  11              	.LFB0:
  12              		.file 1 "src/../h/syscall_cpp.hpp"
   1:src/../h/syscall_cpp.hpp **** //
   2:src/../h/syscall_cpp.hpp **** // Created by os on 4/13/24.
   3:src/../h/syscall_cpp.hpp **** //
   4:src/../h/syscall_cpp.hpp **** 
   5:src/../h/syscall_cpp.hpp **** #ifndef PROJECT_BASE_V1_1_SYSCALL_CPP_HPP
   6:src/../h/syscall_cpp.hpp **** #define PROJECT_BASE_V1_1_SYSCALL_CPP_HPP
   7:src/../h/syscall_cpp.hpp **** #include "syscall_c.h"
   8:src/../h/syscall_cpp.hpp **** 
   9:src/../h/syscall_cpp.hpp **** void* operator new(size_t);
  10:src/../h/syscall_cpp.hpp **** void operator delete (void*);
  11:src/../h/syscall_cpp.hpp **** 
  12:src/../h/syscall_cpp.hpp **** class Thread{
  13:src/../h/syscall_cpp.hpp **** public:
  14:src/../h/syscall_cpp.hpp ****     Thread(void (*body)(void*), void* arg);
  15:src/../h/syscall_cpp.hpp ****     virtual ~Thread();
  16:src/../h/syscall_cpp.hpp **** 
  17:src/../h/syscall_cpp.hpp ****     int start();
  18:src/../h/syscall_cpp.hpp **** 
  19:src/../h/syscall_cpp.hpp ****     static void dispatch();
  20:src/../h/syscall_cpp.hpp ****     static int sleep (time_t);
  21:src/../h/syscall_cpp.hpp **** 
  22:src/../h/syscall_cpp.hpp **** protected:
  23:src/../h/syscall_cpp.hpp ****     Thread();
  24:src/../h/syscall_cpp.hpp ****     virtual void run(){}
  13              		.loc 1 24 18
  14              		.cfi_startproc
  15              	.LVL0:
  16 0000 130101FF 		addi	sp,sp,-16
  17              		.cfi_def_cfa_offset 16
  18 0004 23348100 		sd	s0,8(sp)
  19              		.cfi_offset 8, -8
  20 0008 13040101 		addi	s0,sp,16
  21              		.cfi_def_cfa 8, 0
  22              		.loc 1 24 24 is_stmt 0
  23 000c 03348100 		ld	s0,8(sp)
  24              		.cfi_restore 8
  25              		.cfi_def_cfa 2, 16
  26 0010 13010101 		addi	sp,sp,16
  27              		.cfi_def_cfa_offset 0
  28 0014 67800000 		jr	ra
  29              		.cfi_endproc
  30              	.LFE0:
  32              		.section	.text._ZN14PeriodicThread18periodicActivationEv,"axG",@progbits,_ZN14PeriodicThread18peri
  33              		.align	2
  34              		.weak	_ZN14PeriodicThread18periodicActivationEv
  36              	_ZN14PeriodicThread18periodicActivationEv:
GAS LISTING /tmp/cc6SGE6u.s 			page 2


  37              	.LFB1:
  25:src/../h/syscall_cpp.hpp **** 
  26:src/../h/syscall_cpp.hpp **** private:
  27:src/../h/syscall_cpp.hpp ****     thread_t myHandle;
  28:src/../h/syscall_cpp.hpp ****     void (*body)(void*);
  29:src/../h/syscall_cpp.hpp ****     void* arg;
  30:src/../h/syscall_cpp.hpp **** };
  31:src/../h/syscall_cpp.hpp **** 
  32:src/../h/syscall_cpp.hpp **** class Semaphore{
  33:src/../h/syscall_cpp.hpp **** public:
  34:src/../h/syscall_cpp.hpp ****     Semaphore (unsigned init = 1);
  35:src/../h/syscall_cpp.hpp ****     virtual ~Semaphore ();
  36:src/../h/syscall_cpp.hpp ****     int wait ();
  37:src/../h/syscall_cpp.hpp ****     int signal ();
  38:src/../h/syscall_cpp.hpp ****     int timedWait (time_t);
  39:src/../h/syscall_cpp.hpp ****     int tryWait();
  40:src/../h/syscall_cpp.hpp **** private:
  41:src/../h/syscall_cpp.hpp ****     sem_t myHandle;
  42:src/../h/syscall_cpp.hpp **** };
  43:src/../h/syscall_cpp.hpp **** 
  44:src/../h/syscall_cpp.hpp **** class PeriodicThread : public Thread {
  45:src/../h/syscall_cpp.hpp **** public:
  46:src/../h/syscall_cpp.hpp ****     void terminate ();
  47:src/../h/syscall_cpp.hpp **** 
  48:src/../h/syscall_cpp.hpp **** protected:
  49:src/../h/syscall_cpp.hpp ****     PeriodicThread (time_t period);
  50:src/../h/syscall_cpp.hpp ****     virtual void periodicActivation () {}
  38              		.loc 1 50 18 is_stmt 1
  39              		.cfi_startproc
  40              	.LVL1:
  41 0000 130101FF 		addi	sp,sp,-16
  42              		.cfi_def_cfa_offset 16
  43 0004 23348100 		sd	s0,8(sp)
  44              		.cfi_offset 8, -8
  45 0008 13040101 		addi	s0,sp,16
  46              		.cfi_def_cfa 8, 0
  47              		.loc 1 50 41 is_stmt 0
  48 000c 03348100 		ld	s0,8(sp)
  49              		.cfi_restore 8
  50              		.cfi_def_cfa 2, 16
  51 0010 13010101 		addi	sp,sp,16
  52              		.cfi_def_cfa_offset 0
  53 0014 67800000 		jr	ra
  54              		.cfi_endproc
  55              	.LFE1:
  57              		.text
  58              		.align	2
  59              		.globl	_ZN6ThreadD2Ev
  61              	_ZN6ThreadD2Ev:
  62              	.LFB14:
  63              		.file 2 "src/syscall_cpp.cpp"
   1:src/syscall_cpp.cpp **** 
   2:src/syscall_cpp.cpp **** #include "../h/syscall_cpp.hpp"
   3:src/syscall_cpp.cpp **** 
   4:src/syscall_cpp.cpp **** void* operator new(size_t size){
   5:src/syscall_cpp.cpp ****     return mem_alloc(size);
   6:src/syscall_cpp.cpp **** }
GAS LISTING /tmp/cc6SGE6u.s 			page 3


   7:src/syscall_cpp.cpp **** 
   8:src/syscall_cpp.cpp **** void operator delete (void* ptr){
   9:src/syscall_cpp.cpp ****     mem_free(ptr);
  10:src/syscall_cpp.cpp **** }
  11:src/syscall_cpp.cpp **** 
  12:src/syscall_cpp.cpp **** 
  13:src/syscall_cpp.cpp **** Thread::Thread(void (*body)(void *), void *arg) {
  14:src/syscall_cpp.cpp ****     this->body = body;
  15:src/syscall_cpp.cpp ****     this->arg = arg;
  16:src/syscall_cpp.cpp **** }
  17:src/syscall_cpp.cpp **** 
  18:src/syscall_cpp.cpp **** int Thread::sleep(time_t slice) {
  19:src/syscall_cpp.cpp ****     return time_sleep(slice);
  20:src/syscall_cpp.cpp **** }
  21:src/syscall_cpp.cpp **** 
  22:src/syscall_cpp.cpp **** void Thread::dispatch() {
  23:src/syscall_cpp.cpp ****     thread_dispatch();
  24:src/syscall_cpp.cpp **** }
  25:src/syscall_cpp.cpp **** 
  26:src/syscall_cpp.cpp **** Thread::Thread() {
  27:src/syscall_cpp.cpp ****     this->body = nullptr;
  28:src/syscall_cpp.cpp ****     this->arg = nullptr;
  29:src/syscall_cpp.cpp **** }
  30:src/syscall_cpp.cpp **** 
  31:src/syscall_cpp.cpp **** int Thread::start() {
  32:src/syscall_cpp.cpp ****     return thread_create(&myHandle, body, arg);
  33:src/syscall_cpp.cpp **** }
  34:src/syscall_cpp.cpp **** 
  35:src/syscall_cpp.cpp **** Thread::~Thread() {
  64              		.loc 2 35 1 is_stmt 1
  65              		.cfi_startproc
  66              		.cfi_personality 0x9b,DW.ref.__gxx_personality_v0
  67              		.cfi_lsda 0x1b,.LLSDA14
  68              	.LVL2:
  69 0000 130101FF 		addi	sp,sp,-16
  70              		.cfi_def_cfa_offset 16
  71 0004 23341100 		sd	ra,8(sp)
  72 0008 23308100 		sd	s0,0(sp)
  73              		.cfi_offset 1, -8
  74              		.cfi_offset 8, -16
  75 000c 13040101 		addi	s0,sp,16
  76              		.cfi_def_cfa 8, 0
  77              	.LBB8:
  78              		.loc 2 35 17 is_stmt 0
  79 0010 97070000 		lla	a5,_ZTV6Thread+16
  79      93870700 
  80 0018 2330F500 		sd	a5,0(a0)
  36:src/syscall_cpp.cpp ****     thread_exit();
  81              		.loc 2 36 5 is_stmt 1
  82              		.loc 2 36 16 is_stmt 0
  83 001c 97000000 		call	_Z11thread_exitv@plt
  83      E7800000 
  84              	.LVL3:
  85              	.LBE8:
  37:src/syscall_cpp.cpp **** }
  86              		.loc 2 37 1
  87 0024 83308100 		ld	ra,8(sp)
GAS LISTING /tmp/cc6SGE6u.s 			page 4


  88              		.cfi_restore 1
  89 0028 03340100 		ld	s0,0(sp)
  90              		.cfi_restore 8
  91              		.cfi_def_cfa 2, 16
  92 002c 13010101 		addi	sp,sp,16
  93              		.cfi_def_cfa_offset 0
  94 0030 67800000 		jr	ra
  95              		.cfi_endproc
  96              	.LFE14:
  97              		.globl	__gxx_personality_v0
  98              		.section	.gcc_except_table,"a",@progbits
  99              	.LLSDA14:
 100 0000 FF       		.byte	0xff
 101 0001 FF       		.byte	0xff
 102 0002 03       		.byte	0x3
 103 0003 00       		.byte	0
 104              		.text
 106              		.globl	_ZN6ThreadD1Ev
 107              		.set	_ZN6ThreadD1Ev,_ZN6ThreadD2Ev
 108              		.section	.text._ZN14PeriodicThreadD2Ev,"axG",@progbits,_ZN14PeriodicThreadD5Ev,comdat
 109              		.align	2
 110              		.weak	_ZN14PeriodicThreadD2Ev
 112              	_ZN14PeriodicThreadD2Ev:
 113              	.LFB35:
  44:src/../h/syscall_cpp.hpp **** public:
 114              		.loc 1 44 7 is_stmt 1
 115              		.cfi_startproc
 116              	.LVL4:
 117 0000 130101FF 		addi	sp,sp,-16
 118              		.cfi_def_cfa_offset 16
 119 0004 23341100 		sd	ra,8(sp)
 120 0008 23308100 		sd	s0,0(sp)
 121              		.cfi_offset 1, -8
 122              		.cfi_offset 8, -16
 123 000c 13040101 		addi	s0,sp,16
 124              		.cfi_def_cfa 8, 0
 125              	.LBB9:
  44:src/../h/syscall_cpp.hpp **** public:
 126              		.loc 1 44 7 is_stmt 0
 127 0010 97070000 		lla	a5,_ZTV14PeriodicThread+16
 127      93870700 
 128 0018 2330F500 		sd	a5,0(a0)
 129 001c 97000000 		call	_ZN6ThreadD2Ev
 129      E7800000 
 130              	.LVL5:
 131              	.LBE9:
 132 0024 83308100 		ld	ra,8(sp)
 133              		.cfi_restore 1
 134 0028 03340100 		ld	s0,0(sp)
 135              		.cfi_restore 8
 136              		.cfi_def_cfa 2, 16
 137 002c 13010101 		addi	sp,sp,16
 138              		.cfi_def_cfa_offset 0
 139 0030 67800000 		jr	ra
 140              		.cfi_endproc
 141              	.LFE35:
 143              		.weak	_ZN14PeriodicThreadD1Ev
GAS LISTING /tmp/cc6SGE6u.s 			page 5


 144              		.set	_ZN14PeriodicThreadD1Ev,_ZN14PeriodicThreadD2Ev
 145              		.text
 146              		.align	2
 147              		.globl	_ZN9SemaphoreD2Ev
 149              	_ZN9SemaphoreD2Ev:
 150              	.LFB21:
  38:src/syscall_cpp.cpp **** 
  39:src/syscall_cpp.cpp **** Semaphore::Semaphore(unsigned int init) {
  40:src/syscall_cpp.cpp ****     sem_open(&myHandle, init);
  41:src/syscall_cpp.cpp **** }
  42:src/syscall_cpp.cpp **** 
  43:src/syscall_cpp.cpp **** Semaphore::~Semaphore() {
 151              		.loc 2 43 1 is_stmt 1
 152              		.cfi_startproc
 153              		.cfi_personality 0x9b,DW.ref.__gxx_personality_v0
 154              		.cfi_lsda 0x1b,.LLSDA21
 155              	.LVL6:
 156 0034 130101FF 		addi	sp,sp,-16
 157              		.cfi_def_cfa_offset 16
 158 0038 23341100 		sd	ra,8(sp)
 159 003c 23308100 		sd	s0,0(sp)
 160              		.cfi_offset 1, -8
 161              		.cfi_offset 8, -16
 162 0040 13040101 		addi	s0,sp,16
 163              		.cfi_def_cfa 8, 0
 164              	.LBB10:
 165              		.loc 2 43 23 is_stmt 0
 166 0044 97070000 		lla	a5,_ZTV9Semaphore+16
 166      93870700 
 167 004c 2330F500 		sd	a5,0(a0)
  44:src/syscall_cpp.cpp ****     sem_close(myHandle);
 168              		.loc 2 44 5 is_stmt 1
 169              		.loc 2 44 14 is_stmt 0
 170 0050 03358500 		ld	a0,8(a0)
 171              	.LVL7:
 172 0054 97000000 		call	_Z9sem_closeP4_sem@plt
 172      E7800000 
 173              	.LVL8:
 174              	.LBE10:
  45:src/syscall_cpp.cpp **** }
 175              		.loc 2 45 1
 176 005c 83308100 		ld	ra,8(sp)
 177              		.cfi_restore 1
 178 0060 03340100 		ld	s0,0(sp)
 179              		.cfi_restore 8
 180              		.cfi_def_cfa 2, 16
 181 0064 13010101 		addi	sp,sp,16
 182              		.cfi_def_cfa_offset 0
 183 0068 67800000 		jr	ra
 184              		.cfi_endproc
 185              	.LFE21:
 186              		.section	.gcc_except_table
 187              	.LLSDA21:
 188 0004 FF       		.byte	0xff
 189 0005 FF       		.byte	0xff
 190 0006 03       		.byte	0x3
 191 0007 00       		.byte	0
GAS LISTING /tmp/cc6SGE6u.s 			page 6


 192              		.text
 194              		.globl	_ZN9SemaphoreD1Ev
 195              		.set	_ZN9SemaphoreD1Ev,_ZN9SemaphoreD2Ev
 196              		.align	2
 197              		.globl	_Znwm
 199              	_Znwm:
 200              	.LFB2:
   4:src/syscall_cpp.cpp **** void operator delete (void* ptr){
 201              		.loc 2 4 32 is_stmt 1
 202              		.cfi_startproc
 203              	.LVL9:
 204 006c 130101FF 		addi	sp,sp,-16
 205              		.cfi_def_cfa_offset 16
 206 0070 23341100 		sd	ra,8(sp)
 207 0074 23308100 		sd	s0,0(sp)
 208              		.cfi_offset 1, -8
 209              		.cfi_offset 8, -16
 210 0078 13040101 		addi	s0,sp,16
 211              		.cfi_def_cfa 8, 0
   5:src/syscall_cpp.cpp **** }
 212              		.loc 2 5 5
   5:src/syscall_cpp.cpp **** }
 213              		.loc 2 5 21 is_stmt 0
 214 007c 97000000 		call	_Z9mem_allocm@plt
 214      E7800000 
 215              	.LVL10:
   6:src/syscall_cpp.cpp **** 
 216              		.loc 2 6 1
 217 0084 83308100 		ld	ra,8(sp)
 218              		.cfi_restore 1
 219 0088 03340100 		ld	s0,0(sp)
 220              		.cfi_restore 8
 221              		.cfi_def_cfa 2, 16
 222 008c 13010101 		addi	sp,sp,16
 223              		.cfi_def_cfa_offset 0
 224 0090 67800000 		jr	ra
 225              		.cfi_endproc
 226              	.LFE2:
 228              		.align	2
 229              		.globl	_ZdlPv
 231              	_ZdlPv:
 232              	.LFB3:
   8:src/syscall_cpp.cpp ****     mem_free(ptr);
 233              		.loc 2 8 33 is_stmt 1
 234              		.cfi_startproc
 235              	.LVL11:
 236 0094 130101FF 		addi	sp,sp,-16
 237              		.cfi_def_cfa_offset 16
 238 0098 23341100 		sd	ra,8(sp)
 239 009c 23308100 		sd	s0,0(sp)
 240              		.cfi_offset 1, -8
 241              		.cfi_offset 8, -16
 242 00a0 13040101 		addi	s0,sp,16
 243              		.cfi_def_cfa 8, 0
   9:src/syscall_cpp.cpp **** }
 244              		.loc 2 9 5
   9:src/syscall_cpp.cpp **** }
GAS LISTING /tmp/cc6SGE6u.s 			page 7


 245              		.loc 2 9 13 is_stmt 0
 246 00a4 97000000 		call	_Z8mem_freePv@plt
 246      E7800000 
 247              	.LVL12:
  10:src/syscall_cpp.cpp **** 
 248              		.loc 2 10 1
 249 00ac 83308100 		ld	ra,8(sp)
 250              		.cfi_restore 1
 251 00b0 03340100 		ld	s0,0(sp)
 252              		.cfi_restore 8
 253              		.cfi_def_cfa 2, 16
 254 00b4 13010101 		addi	sp,sp,16
 255              		.cfi_def_cfa_offset 0
 256 00b8 67800000 		jr	ra
 257              		.cfi_endproc
 258              	.LFE3:
 260              		.align	2
 261              		.globl	_ZN6ThreadD0Ev
 263              	_ZN6ThreadD0Ev:
 264              	.LFB16:
  35:src/syscall_cpp.cpp ****     thread_exit();
 265              		.loc 2 35 1 is_stmt 1
 266              		.cfi_startproc
 267              	.LVL13:
 268 00bc 130101FE 		addi	sp,sp,-32
 269              		.cfi_def_cfa_offset 32
 270 00c0 233C1100 		sd	ra,24(sp)
 271 00c4 23388100 		sd	s0,16(sp)
 272 00c8 23349100 		sd	s1,8(sp)
 273              		.cfi_offset 1, -8
 274              		.cfi_offset 8, -16
 275              		.cfi_offset 9, -24
 276 00cc 13040102 		addi	s0,sp,32
 277              		.cfi_def_cfa 8, 0
 278 00d0 93040500 		mv	s1,a0
  37:src/syscall_cpp.cpp **** 
 279              		.loc 2 37 1 is_stmt 0
 280 00d4 97000000 		call	_ZN6ThreadD1Ev
 280      E7800000 
 281              	.LVL14:
 282 00dc 13850400 		mv	a0,s1
 283 00e0 97000000 		call	_ZdlPv
 283      E7800000 
 284              	.LVL15:
 285 00e8 83308101 		ld	ra,24(sp)
 286              		.cfi_restore 1
 287 00ec 03340101 		ld	s0,16(sp)
 288              		.cfi_restore 8
 289              		.cfi_def_cfa 2, 32
 290 00f0 83348100 		ld	s1,8(sp)
 291              		.cfi_restore 9
 292              	.LVL16:
 293 00f4 13010102 		addi	sp,sp,32
 294              		.cfi_def_cfa_offset 0
 295 00f8 67800000 		jr	ra
 296              		.cfi_endproc
 297              	.LFE16:
GAS LISTING /tmp/cc6SGE6u.s 			page 8


 299              		.align	2
 300              		.globl	_ZN9SemaphoreD0Ev
 302              	_ZN9SemaphoreD0Ev:
 303              	.LFB23:
  43:src/syscall_cpp.cpp ****     sem_close(myHandle);
 304              		.loc 2 43 1 is_stmt 1
 305              		.cfi_startproc
 306              	.LVL17:
 307 00fc 130101FE 		addi	sp,sp,-32
 308              		.cfi_def_cfa_offset 32
 309 0100 233C1100 		sd	ra,24(sp)
 310 0104 23388100 		sd	s0,16(sp)
 311 0108 23349100 		sd	s1,8(sp)
 312              		.cfi_offset 1, -8
 313              		.cfi_offset 8, -16
 314              		.cfi_offset 9, -24
 315 010c 13040102 		addi	s0,sp,32
 316              		.cfi_def_cfa 8, 0
 317 0110 93040500 		mv	s1,a0
 318              		.loc 2 45 1 is_stmt 0
 319 0114 97000000 		call	_ZN9SemaphoreD1Ev
 319      E7800000 
 320              	.LVL18:
 321 011c 13850400 		mv	a0,s1
 322 0120 97000000 		call	_ZdlPv
 322      E7800000 
 323              	.LVL19:
 324 0128 83308101 		ld	ra,24(sp)
 325              		.cfi_restore 1
 326 012c 03340101 		ld	s0,16(sp)
 327              		.cfi_restore 8
 328              		.cfi_def_cfa 2, 32
 329 0130 83348100 		ld	s1,8(sp)
 330              		.cfi_restore 9
 331              	.LVL20:
 332 0134 13010102 		addi	sp,sp,32
 333              		.cfi_def_cfa_offset 0
 334 0138 67800000 		jr	ra
 335              		.cfi_endproc
 336              	.LFE23:
 338              		.section	.text._ZN14PeriodicThreadD0Ev,"axG",@progbits,_ZN14PeriodicThreadD5Ev,comdat
 339              		.align	2
 340              		.weak	_ZN14PeriodicThreadD0Ev
 342              	_ZN14PeriodicThreadD0Ev:
 343              	.LFB37:
  44:src/../h/syscall_cpp.hpp **** public:
 344              		.loc 1 44 7 is_stmt 1
 345              		.cfi_startproc
 346              	.LVL21:
 347 0000 130101FE 		addi	sp,sp,-32
 348              		.cfi_def_cfa_offset 32
 349 0004 233C1100 		sd	ra,24(sp)
 350 0008 23388100 		sd	s0,16(sp)
 351 000c 23349100 		sd	s1,8(sp)
 352              		.cfi_offset 1, -8
 353              		.cfi_offset 8, -16
 354              		.cfi_offset 9, -24
GAS LISTING /tmp/cc6SGE6u.s 			page 9


 355 0010 13040102 		addi	s0,sp,32
 356              		.cfi_def_cfa 8, 0
 357 0014 93040500 		mv	s1,a0
 358              	.LVL22:
 359              	.LBB11:
 360              	.LBB12:
  44:src/../h/syscall_cpp.hpp **** public:
 361              		.loc 1 44 7 is_stmt 0
 362 0018 97070000 		lla	a5,_ZTV14PeriodicThread+16
 362      93870700 
 363 0020 2330F500 		sd	a5,0(a0)
 364 0024 97000000 		call	_ZN6ThreadD2Ev
 364      E7800000 
 365              	.LVL23:
 366              	.LBE12:
 367              	.LBE11:
 368 002c 13850400 		mv	a0,s1
 369 0030 97000000 		call	_ZdlPv
 369      E7800000 
 370              	.LVL24:
 371 0038 83308101 		ld	ra,24(sp)
 372              		.cfi_restore 1
 373 003c 03340101 		ld	s0,16(sp)
 374              		.cfi_restore 8
 375              		.cfi_def_cfa 2, 32
 376 0040 83348100 		ld	s1,8(sp)
 377              		.cfi_restore 9
 378              	.LVL25:
 379 0044 13010102 		addi	sp,sp,32
 380              		.cfi_def_cfa_offset 0
 381 0048 67800000 		jr	ra
 382              		.cfi_endproc
 383              	.LFE37:
 385              		.text
 386              		.align	2
 387              		.globl	_ZN6ThreadC2EPFvPvES0_
 389              	_ZN6ThreadC2EPFvPvES0_:
 390              	.LFB5:
  13:src/syscall_cpp.cpp ****     this->body = body;
 391              		.loc 2 13 1 is_stmt 1
 392              		.cfi_startproc
 393              	.LVL26:
 394 013c 130101FF 		addi	sp,sp,-16
 395              		.cfi_def_cfa_offset 16
 396 0140 23348100 		sd	s0,8(sp)
 397              		.cfi_offset 8, -8
 398 0144 13040101 		addi	s0,sp,16
 399              		.cfi_def_cfa 8, 0
 400              	.LBB13:
  13:src/syscall_cpp.cpp ****     this->body = body;
 401              		.loc 2 13 47 is_stmt 0
 402 0148 97070000 		lla	a5,_ZTV6Thread+16
 402      93870700 
 403 0150 2330F500 		sd	a5,0(a0)
  14:src/syscall_cpp.cpp ****     this->arg = arg;
 404              		.loc 2 14 5 is_stmt 1
  14:src/syscall_cpp.cpp ****     this->arg = arg;
GAS LISTING /tmp/cc6SGE6u.s 			page 10


 405              		.loc 2 14 16 is_stmt 0
 406 0154 2338B500 		sd	a1,16(a0)
  15:src/syscall_cpp.cpp **** }
 407              		.loc 2 15 5 is_stmt 1
  15:src/syscall_cpp.cpp **** }
 408              		.loc 2 15 15 is_stmt 0
 409 0158 233CC500 		sd	a2,24(a0)
 410              	.LBE13:
  16:src/syscall_cpp.cpp **** 
 411              		.loc 2 16 1
 412 015c 03348100 		ld	s0,8(sp)
 413              		.cfi_restore 8
 414              		.cfi_def_cfa 2, 16
 415 0160 13010101 		addi	sp,sp,16
 416              		.cfi_def_cfa_offset 0
 417 0164 67800000 		jr	ra
 418              		.cfi_endproc
 419              	.LFE5:
 421              		.globl	_ZN6ThreadC1EPFvPvES0_
 422              		.set	_ZN6ThreadC1EPFvPvES0_,_ZN6ThreadC2EPFvPvES0_
 423              		.align	2
 424              		.globl	_ZN6Thread5sleepEm
 426              	_ZN6Thread5sleepEm:
 427              	.LFB7:
  18:src/syscall_cpp.cpp ****     return time_sleep(slice);
 428              		.loc 2 18 33 is_stmt 1
 429              		.cfi_startproc
 430              	.LVL27:
 431 0168 130101FF 		addi	sp,sp,-16
 432              		.cfi_def_cfa_offset 16
 433 016c 23341100 		sd	ra,8(sp)
 434 0170 23308100 		sd	s0,0(sp)
 435              		.cfi_offset 1, -8
 436              		.cfi_offset 8, -16
 437 0174 13040101 		addi	s0,sp,16
 438              		.cfi_def_cfa 8, 0
  19:src/syscall_cpp.cpp **** }
 439              		.loc 2 19 5
  19:src/syscall_cpp.cpp **** }
 440              		.loc 2 19 22 is_stmt 0
 441 0178 97000000 		call	_Z10time_sleepm@plt
 441      E7800000 
 442              	.LVL28:
  20:src/syscall_cpp.cpp **** 
 443              		.loc 2 20 1
 444 0180 83308100 		ld	ra,8(sp)
 445              		.cfi_restore 1
 446 0184 03340100 		ld	s0,0(sp)
 447              		.cfi_restore 8
 448              		.cfi_def_cfa 2, 16
 449 0188 13010101 		addi	sp,sp,16
 450              		.cfi_def_cfa_offset 0
 451 018c 67800000 		jr	ra
 452              		.cfi_endproc
 453              	.LFE7:
 455              		.align	2
 456              		.globl	_ZN6Thread8dispatchEv
GAS LISTING /tmp/cc6SGE6u.s 			page 11


 458              	_ZN6Thread8dispatchEv:
 459              	.LFB8:
  22:src/syscall_cpp.cpp ****     thread_dispatch();
 460              		.loc 2 22 25 is_stmt 1
 461              		.cfi_startproc
 462 0190 130101FF 		addi	sp,sp,-16
 463              		.cfi_def_cfa_offset 16
 464 0194 23341100 		sd	ra,8(sp)
 465 0198 23308100 		sd	s0,0(sp)
 466              		.cfi_offset 1, -8
 467              		.cfi_offset 8, -16
 468 019c 13040101 		addi	s0,sp,16
 469              		.cfi_def_cfa 8, 0
  23:src/syscall_cpp.cpp **** }
 470              		.loc 2 23 5
  23:src/syscall_cpp.cpp **** }
 471              		.loc 2 23 20 is_stmt 0
 472 01a0 97000000 		call	_Z15thread_dispatchv@plt
 472      E7800000 
 473              	.LVL29:
  24:src/syscall_cpp.cpp **** 
 474              		.loc 2 24 1
 475 01a8 83308100 		ld	ra,8(sp)
 476              		.cfi_restore 1
 477 01ac 03340100 		ld	s0,0(sp)
 478              		.cfi_restore 8
 479              		.cfi_def_cfa 2, 16
 480 01b0 13010101 		addi	sp,sp,16
 481              		.cfi_def_cfa_offset 0
 482 01b4 67800000 		jr	ra
 483              		.cfi_endproc
 484              	.LFE8:
 486              		.align	2
 487              		.globl	_ZN6ThreadC2Ev
 489              	_ZN6ThreadC2Ev:
 490              	.LFB10:
  26:src/syscall_cpp.cpp ****     this->body = nullptr;
 491              		.loc 2 26 1 is_stmt 1
 492              		.cfi_startproc
 493              	.LVL30:
 494 01b8 130101FF 		addi	sp,sp,-16
 495              		.cfi_def_cfa_offset 16
 496 01bc 23348100 		sd	s0,8(sp)
 497              		.cfi_offset 8, -8
 498 01c0 13040101 		addi	s0,sp,16
 499              		.cfi_def_cfa 8, 0
 500              	.LBB14:
  26:src/syscall_cpp.cpp ****     this->body = nullptr;
 501              		.loc 2 26 16 is_stmt 0
 502 01c4 97070000 		lla	a5,_ZTV6Thread+16
 502      93870700 
 503 01cc 2330F500 		sd	a5,0(a0)
  27:src/syscall_cpp.cpp ****     this->arg = nullptr;
 504              		.loc 2 27 5 is_stmt 1
  27:src/syscall_cpp.cpp ****     this->arg = nullptr;
 505              		.loc 2 27 16 is_stmt 0
 506 01d0 23380500 		sd	zero,16(a0)
GAS LISTING /tmp/cc6SGE6u.s 			page 12


  28:src/syscall_cpp.cpp **** }
 507              		.loc 2 28 5 is_stmt 1
  28:src/syscall_cpp.cpp **** }
 508              		.loc 2 28 15 is_stmt 0
 509 01d4 233C0500 		sd	zero,24(a0)
 510              	.LBE14:
  29:src/syscall_cpp.cpp **** 
 511              		.loc 2 29 1
 512 01d8 03348100 		ld	s0,8(sp)
 513              		.cfi_restore 8
 514              		.cfi_def_cfa 2, 16
 515 01dc 13010101 		addi	sp,sp,16
 516              		.cfi_def_cfa_offset 0
 517 01e0 67800000 		jr	ra
 518              		.cfi_endproc
 519              	.LFE10:
 521              		.globl	_ZN6ThreadC1Ev
 522              		.set	_ZN6ThreadC1Ev,_ZN6ThreadC2Ev
 523              		.align	2
 524              		.globl	_ZN6Thread5startEv
 526              	_ZN6Thread5startEv:
 527              	.LFB12:
  31:src/syscall_cpp.cpp ****     return thread_create(&myHandle, body, arg);
 528              		.loc 2 31 21 is_stmt 1
 529              		.cfi_startproc
 530              	.LVL31:
 531 01e4 130101FF 		addi	sp,sp,-16
 532              		.cfi_def_cfa_offset 16
 533 01e8 23341100 		sd	ra,8(sp)
 534 01ec 23308100 		sd	s0,0(sp)
 535              		.cfi_offset 1, -8
 536              		.cfi_offset 8, -16
 537 01f0 13040101 		addi	s0,sp,16
 538              		.cfi_def_cfa 8, 0
  32:src/syscall_cpp.cpp **** }
 539              		.loc 2 32 5
  32:src/syscall_cpp.cpp **** }
 540              		.loc 2 32 25 is_stmt 0
 541 01f4 03368501 		ld	a2,24(a0)
 542 01f8 83350501 		ld	a1,16(a0)
 543 01fc 13058500 		addi	a0,a0,8
 544              	.LVL32:
 545 0200 97000000 		call	_Z13thread_createPP7_threadPFvPvES2_@plt
 545      E7800000 
 546              	.LVL33:
  33:src/syscall_cpp.cpp **** 
 547              		.loc 2 33 1
 548 0208 83308100 		ld	ra,8(sp)
 549              		.cfi_restore 1
 550 020c 03340100 		ld	s0,0(sp)
 551              		.cfi_restore 8
 552              		.cfi_def_cfa 2, 16
 553 0210 13010101 		addi	sp,sp,16
 554              		.cfi_def_cfa_offset 0
 555 0214 67800000 		jr	ra
 556              		.cfi_endproc
 557              	.LFE12:
GAS LISTING /tmp/cc6SGE6u.s 			page 13


 559              		.align	2
 560              		.globl	_ZN9SemaphoreC2Ej
 562              	_ZN9SemaphoreC2Ej:
 563              	.LFB18:
  39:src/syscall_cpp.cpp ****     sem_open(&myHandle, init);
 564              		.loc 2 39 1 is_stmt 1
 565              		.cfi_startproc
 566              	.LVL34:
 567 0218 130101FF 		addi	sp,sp,-16
 568              		.cfi_def_cfa_offset 16
 569 021c 23341100 		sd	ra,8(sp)
 570 0220 23308100 		sd	s0,0(sp)
 571              		.cfi_offset 1, -8
 572              		.cfi_offset 8, -16
 573 0224 13040101 		addi	s0,sp,16
 574              		.cfi_def_cfa 8, 0
 575              	.LBB15:
  39:src/syscall_cpp.cpp ****     sem_open(&myHandle, init);
 576              		.loc 2 39 39 is_stmt 0
 577 0228 97070000 		lla	a5,_ZTV9Semaphore+16
 577      93870700 
 578 0230 2330F500 		sd	a5,0(a0)
  40:src/syscall_cpp.cpp **** }
 579              		.loc 2 40 5 is_stmt 1
  40:src/syscall_cpp.cpp **** }
 580              		.loc 2 40 13 is_stmt 0
 581 0234 13058500 		addi	a0,a0,8
 582              	.LVL35:
 583 0238 97000000 		call	_Z8sem_openPP4_semj@plt
 583      E7800000 
 584              	.LVL36:
 585              	.LBE15:
  41:src/syscall_cpp.cpp **** 
 586              		.loc 2 41 1
 587 0240 83308100 		ld	ra,8(sp)
 588              		.cfi_restore 1
 589 0244 03340100 		ld	s0,0(sp)
 590              		.cfi_restore 8
 591              		.cfi_def_cfa 2, 16
 592 0248 13010101 		addi	sp,sp,16
 593              		.cfi_def_cfa_offset 0
 594 024c 67800000 		jr	ra
 595              		.cfi_endproc
 596              	.LFE18:
 598              		.globl	_ZN9SemaphoreC1Ej
 599              		.set	_ZN9SemaphoreC1Ej,_ZN9SemaphoreC2Ej
 600              		.align	2
 601              		.globl	_ZN9Semaphore4waitEv
 603              	_ZN9Semaphore4waitEv:
 604              	.LFB24:
  46:src/syscall_cpp.cpp **** 
  47:src/syscall_cpp.cpp **** int Semaphore::wait() {
 605              		.loc 2 47 23 is_stmt 1
 606              		.cfi_startproc
 607              	.LVL37:
 608 0250 130101FF 		addi	sp,sp,-16
 609              		.cfi_def_cfa_offset 16
GAS LISTING /tmp/cc6SGE6u.s 			page 14


 610 0254 23341100 		sd	ra,8(sp)
 611 0258 23308100 		sd	s0,0(sp)
 612              		.cfi_offset 1, -8
 613              		.cfi_offset 8, -16
 614 025c 13040101 		addi	s0,sp,16
 615              		.cfi_def_cfa 8, 0
  48:src/syscall_cpp.cpp ****     return sem_wait(myHandle);
 616              		.loc 2 48 5
 617              		.loc 2 48 20 is_stmt 0
 618 0260 03358500 		ld	a0,8(a0)
 619              	.LVL38:
 620 0264 97000000 		call	_Z8sem_waitP4_sem@plt
 620      E7800000 
 621              	.LVL39:
  49:src/syscall_cpp.cpp **** }
 622              		.loc 2 49 1
 623 026c 83308100 		ld	ra,8(sp)
 624              		.cfi_restore 1
 625 0270 03340100 		ld	s0,0(sp)
 626              		.cfi_restore 8
 627              		.cfi_def_cfa 2, 16
 628 0274 13010101 		addi	sp,sp,16
 629              		.cfi_def_cfa_offset 0
 630 0278 67800000 		jr	ra
 631              		.cfi_endproc
 632              	.LFE24:
 634              		.align	2
 635              		.globl	_ZN9Semaphore6signalEv
 637              	_ZN9Semaphore6signalEv:
 638              	.LFB25:
  50:src/syscall_cpp.cpp **** 
  51:src/syscall_cpp.cpp **** int Semaphore::signal() {
 639              		.loc 2 51 25 is_stmt 1
 640              		.cfi_startproc
 641              	.LVL40:
 642 027c 130101FF 		addi	sp,sp,-16
 643              		.cfi_def_cfa_offset 16
 644 0280 23341100 		sd	ra,8(sp)
 645 0284 23308100 		sd	s0,0(sp)
 646              		.cfi_offset 1, -8
 647              		.cfi_offset 8, -16
 648 0288 13040101 		addi	s0,sp,16
 649              		.cfi_def_cfa 8, 0
  52:src/syscall_cpp.cpp ****     return sem_signal(myHandle);
 650              		.loc 2 52 5
 651              		.loc 2 52 22 is_stmt 0
 652 028c 03358500 		ld	a0,8(a0)
 653              	.LVL41:
 654 0290 97000000 		call	_Z10sem_signalP4_sem@plt
 654      E7800000 
 655              	.LVL42:
  53:src/syscall_cpp.cpp **** }
 656              		.loc 2 53 1
 657 0298 83308100 		ld	ra,8(sp)
 658              		.cfi_restore 1
 659 029c 03340100 		ld	s0,0(sp)
 660              		.cfi_restore 8
GAS LISTING /tmp/cc6SGE6u.s 			page 15


 661              		.cfi_def_cfa 2, 16
 662 02a0 13010101 		addi	sp,sp,16
 663              		.cfi_def_cfa_offset 0
 664 02a4 67800000 		jr	ra
 665              		.cfi_endproc
 666              	.LFE25:
 668              		.align	2
 669              		.globl	_ZN9Semaphore9timedWaitEm
 671              	_ZN9Semaphore9timedWaitEm:
 672              	.LFB26:
  54:src/syscall_cpp.cpp **** 
  55:src/syscall_cpp.cpp **** int Semaphore::timedWait(time_t slice) {
 673              		.loc 2 55 40 is_stmt 1
 674              		.cfi_startproc
 675              	.LVL43:
 676 02a8 130101FF 		addi	sp,sp,-16
 677              		.cfi_def_cfa_offset 16
 678 02ac 23341100 		sd	ra,8(sp)
 679 02b0 23308100 		sd	s0,0(sp)
 680              		.cfi_offset 1, -8
 681              		.cfi_offset 8, -16
 682 02b4 13040101 		addi	s0,sp,16
 683              		.cfi_def_cfa 8, 0
  56:src/syscall_cpp.cpp ****     return sem_timedwait(myHandle, slice);
 684              		.loc 2 56 5
 685              		.loc 2 56 25 is_stmt 0
 686 02b8 03358500 		ld	a0,8(a0)
 687              	.LVL44:
 688 02bc 97000000 		call	_Z13sem_timedwaitP4_semm@plt
 688      E7800000 
 689              	.LVL45:
  57:src/syscall_cpp.cpp **** }
 690              		.loc 2 57 1
 691 02c4 83308100 		ld	ra,8(sp)
 692              		.cfi_restore 1
 693 02c8 03340100 		ld	s0,0(sp)
 694              		.cfi_restore 8
 695              		.cfi_def_cfa 2, 16
 696 02cc 13010101 		addi	sp,sp,16
 697              		.cfi_def_cfa_offset 0
 698 02d0 67800000 		jr	ra
 699              		.cfi_endproc
 700              	.LFE26:
 702              		.align	2
 703              		.globl	_ZN9Semaphore7tryWaitEv
 705              	_ZN9Semaphore7tryWaitEv:
 706              	.LFB27:
  58:src/syscall_cpp.cpp **** 
  59:src/syscall_cpp.cpp **** int Semaphore::tryWait() {
 707              		.loc 2 59 26 is_stmt 1
 708              		.cfi_startproc
 709              	.LVL46:
 710 02d4 130101FF 		addi	sp,sp,-16
 711              		.cfi_def_cfa_offset 16
 712 02d8 23341100 		sd	ra,8(sp)
 713 02dc 23308100 		sd	s0,0(sp)
 714              		.cfi_offset 1, -8
GAS LISTING /tmp/cc6SGE6u.s 			page 16


 715              		.cfi_offset 8, -16
 716 02e0 13040101 		addi	s0,sp,16
 717              		.cfi_def_cfa 8, 0
  60:src/syscall_cpp.cpp ****     return sem_trywait(myHandle);
 718              		.loc 2 60 5
 719              		.loc 2 60 23 is_stmt 0
 720 02e4 03358500 		ld	a0,8(a0)
 721              	.LVL47:
 722 02e8 97000000 		call	_Z11sem_trywaitP4_sem@plt
 722      E7800000 
 723              	.LVL48:
  61:src/syscall_cpp.cpp **** }
 724              		.loc 2 61 1
 725 02f0 83308100 		ld	ra,8(sp)
 726              		.cfi_restore 1
 727 02f4 03340100 		ld	s0,0(sp)
 728              		.cfi_restore 8
 729              		.cfi_def_cfa 2, 16
 730 02f8 13010101 		addi	sp,sp,16
 731              		.cfi_def_cfa_offset 0
 732 02fc 67800000 		jr	ra
 733              		.cfi_endproc
 734              	.LFE27:
 736              		.align	2
 737              		.globl	_ZN7Console4getcEv
 739              	_ZN7Console4getcEv:
 740              	.LFB28:
  62:src/syscall_cpp.cpp **** 
  63:src/syscall_cpp.cpp **** char Console::getc() {
 741              		.loc 2 63 22 is_stmt 1
 742              		.cfi_startproc
 743 0300 130101FF 		addi	sp,sp,-16
 744              		.cfi_def_cfa_offset 16
 745 0304 23341100 		sd	ra,8(sp)
 746 0308 23308100 		sd	s0,0(sp)
 747              		.cfi_offset 1, -8
 748              		.cfi_offset 8, -16
 749 030c 13040101 		addi	s0,sp,16
 750              		.cfi_def_cfa 8, 0
  64:src/syscall_cpp.cpp ****     return ::getc();
 751              		.loc 2 64 5
 752              		.loc 2 64 18 is_stmt 0
 753 0310 97000000 		call	_Z4getcv@plt
 753      E7800000 
 754              	.LVL49:
  65:src/syscall_cpp.cpp **** }
 755              		.loc 2 65 1
 756 0318 83308100 		ld	ra,8(sp)
 757              		.cfi_restore 1
 758 031c 03340100 		ld	s0,0(sp)
 759              		.cfi_restore 8
 760              		.cfi_def_cfa 2, 16
 761 0320 13010101 		addi	sp,sp,16
 762              		.cfi_def_cfa_offset 0
 763 0324 67800000 		jr	ra
 764              		.cfi_endproc
 765              	.LFE28:
GAS LISTING /tmp/cc6SGE6u.s 			page 17


 767              		.align	2
 768              		.globl	_ZN7Console4putcEc
 770              	_ZN7Console4putcEc:
 771              	.LFB29:
  66:src/syscall_cpp.cpp **** 
  67:src/syscall_cpp.cpp **** void Console::putc(char ch) {
 772              		.loc 2 67 29 is_stmt 1
 773              		.cfi_startproc
 774              	.LVL50:
 775 0328 130101FF 		addi	sp,sp,-16
 776              		.cfi_def_cfa_offset 16
 777 032c 23341100 		sd	ra,8(sp)
 778 0330 23308100 		sd	s0,0(sp)
 779              		.cfi_offset 1, -8
 780              		.cfi_offset 8, -16
 781 0334 13040101 		addi	s0,sp,16
 782              		.cfi_def_cfa 8, 0
  68:src/syscall_cpp.cpp ****     ::putc(ch);
 783              		.loc 2 68 5
 784              		.loc 2 68 11 is_stmt 0
 785 0338 97000000 		call	_Z4putcc@plt
 785      E7800000 
 786              	.LVL51:
  69:src/syscall_cpp.cpp **** }
 787              		.loc 2 69 1
 788 0340 83308100 		ld	ra,8(sp)
 789              		.cfi_restore 1
 790 0344 03340100 		ld	s0,0(sp)
 791              		.cfi_restore 8
 792              		.cfi_def_cfa 2, 16
 793 0348 13010101 		addi	sp,sp,16
 794              		.cfi_def_cfa_offset 0
 795 034c 67800000 		jr	ra
 796              		.cfi_endproc
 797              	.LFE29:
 799              		.align	2
 800              		.globl	_ZN14PeriodicThreadC2Em
 802              	_ZN14PeriodicThreadC2Em:
 803              	.LFB31:
  70:src/syscall_cpp.cpp **** 
  71:src/syscall_cpp.cpp **** PeriodicThread::PeriodicThread(time_t period) : Thread(){
 804              		.loc 2 71 1 is_stmt 1
 805              		.cfi_startproc
 806              		.cfi_personality 0x9b,DW.ref.__gxx_personality_v0
 807              		.cfi_lsda 0x1b,.LLSDA31
 808              	.LVL52:
 809 0350 130101FE 		addi	sp,sp,-32
 810              		.cfi_def_cfa_offset 32
 811 0354 233C1100 		sd	ra,24(sp)
 812 0358 23388100 		sd	s0,16(sp)
 813 035c 23349100 		sd	s1,8(sp)
 814 0360 23302101 		sd	s2,0(sp)
 815              		.cfi_offset 1, -8
 816              		.cfi_offset 8, -16
 817              		.cfi_offset 9, -24
 818              		.cfi_offset 18, -32
 819 0364 13040102 		addi	s0,sp,32
GAS LISTING /tmp/cc6SGE6u.s 			page 18


 820              		.cfi_def_cfa 8, 0
 821 0368 13090500 		mv	s2,a0
 822 036c 93840500 		mv	s1,a1
 823              	.LBB16:
 824              		.loc 2 71 56 is_stmt 0
 825 0370 97000000 		call	_ZN6ThreadC2Ev
 825      E7800000 
 826              	.LVL53:
 827 0378 97070000 		lla	a5,_ZTV14PeriodicThread+16
 827      93870700 
 828 0380 2330F900 		sd	a5,0(s2)
  72:src/syscall_cpp.cpp ****     this->period = period;
 829              		.loc 2 72 5 is_stmt 1
 830              		.loc 2 72 18 is_stmt 0
 831 0384 23309902 		sd	s1,32(s2)
  73:src/syscall_cpp.cpp ****     this->start();
 832              		.loc 2 73 5 is_stmt 1
 833              		.loc 2 73 16 is_stmt 0
 834 0388 13050900 		mv	a0,s2
 835              	.LEHB0:
 836 038c 97000000 		call	_ZN6Thread5startEv
 836      E7800000 
 837              	.LVL54:
 838              	.L46:
  74:src/syscall_cpp.cpp ****     while (true){
 839              		.loc 2 74 5 is_stmt 1
  75:src/syscall_cpp.cpp ****         this->run();
 840              		.loc 2 75 9
  76:src/syscall_cpp.cpp ****         time_sleep(period);
 841              		.loc 2 76 9
 842              		.loc 2 76 19 is_stmt 0
 843 0394 13850400 		mv	a0,s1
 844 0398 97000000 		call	_Z10time_sleepm@plt
 844      E7800000 
 845              	.LVL55:
 846              	.LEHE0:
 847 03a0 6FF05FFF 		j	.L46
 848              	.L48:
 849 03a4 93040500 		mv	s1,a0
 850              	.LVL56:
  71:src/syscall_cpp.cpp ****     this->period = period;
 851              		.loc 2 71 56
 852 03a8 13050900 		mv	a0,s2
 853 03ac 97000000 		call	_ZN6ThreadD2Ev
 853      E7800000 
 854              	.LVL57:
 855 03b4 13850400 		mv	a0,s1
 856              	.LEHB1:
 857 03b8 97000000 		call	_Unwind_Resume@plt
 857      E7800000 
 858              	.LVL58:
 859              	.LEHE1:
 860              	.LBE16:
 861              		.cfi_endproc
 862              	.LFE31:
 863              		.section	.gcc_except_table
 864              	.LLSDA31:
GAS LISTING /tmp/cc6SGE6u.s 			page 19


 865 0008 FF       		.byte	0xff
 866 0009 FF       		.byte	0xff
 867 000a 03       		.byte	0x3
 868 000b 1A       		.byte	0x1a
 869 000c 00000000 		.4byte	.LEHB0-.LFB31
 870 0010 00000000 		.4byte	.LEHE0-.LEHB0
 871 0014 00000000 		.4byte	.L48-.LFB31
 872 0018 00       		.byte	0
 873 0019 00000000 		.4byte	.LEHB1-.LFB31
 874 001d 00000000 		.4byte	.LEHE1-.LEHB1
 875 0021 00000000 		.4byte	0
 876 0025 00       		.byte	0
 877              		.text
 879              		.globl	_ZN14PeriodicThreadC1Em
 880              		.set	_ZN14PeriodicThreadC1Em,_ZN14PeriodicThreadC2Em
 881              		.align	2
 882              		.globl	_ZN14PeriodicThread9terminateEv
 884              	_ZN14PeriodicThread9terminateEv:
 885              	.LFB33:
  77:src/syscall_cpp.cpp ****     }
  78:src/syscall_cpp.cpp **** }
  79:src/syscall_cpp.cpp **** 
  80:src/syscall_cpp.cpp **** void PeriodicThread::terminate() {
 886              		.loc 2 80 34 is_stmt 1
 887              		.cfi_startproc
 888              	.LVL59:
 889 03c0 130101FF 		addi	sp,sp,-16
 890              		.cfi_def_cfa_offset 16
 891 03c4 23341100 		sd	ra,8(sp)
 892 03c8 23308100 		sd	s0,0(sp)
 893              		.cfi_offset 1, -8
 894              		.cfi_offset 8, -16
 895 03cc 13040101 		addi	s0,sp,16
 896              		.cfi_def_cfa 8, 0
  81:src/syscall_cpp.cpp ****     thread_exit();
 897              		.loc 2 81 5
 898              		.loc 2 81 16 is_stmt 0
 899 03d0 97000000 		call	_Z11thread_exitv@plt
 899      E7800000 
 900              	.LVL60:
  82:src/syscall_cpp.cpp **** }
 901              		.loc 2 82 1
 902 03d8 83308100 		ld	ra,8(sp)
 903              		.cfi_restore 1
 904 03dc 03340100 		ld	s0,0(sp)
 905              		.cfi_restore 8
 906              		.cfi_def_cfa 2, 16
 907 03e0 13010101 		addi	sp,sp,16
 908              		.cfi_def_cfa_offset 0
 909 03e4 67800000 		jr	ra
 910              		.cfi_endproc
 911              	.LFE33:
 913              		.weak	_ZTV14PeriodicThread
 914              		.section	.data.rel.ro.local._ZTV14PeriodicThread,"awG",@progbits,_ZTV14PeriodicThread,comdat
 915              		.align	3
 918              	_ZTV14PeriodicThread:
 919 0000 00000000 		.dword	0
GAS LISTING /tmp/cc6SGE6u.s 			page 20


 919      00000000 
 920 0008 00000000 		.dword	0
 920      00000000 
 921 0010 00000000 		.dword	_ZN14PeriodicThreadD1Ev
 921      00000000 
 922 0018 00000000 		.dword	_ZN14PeriodicThreadD0Ev
 922      00000000 
 923 0020 00000000 		.dword	_ZN6Thread3runEv
 923      00000000 
 924 0028 00000000 		.dword	_ZN14PeriodicThread18periodicActivationEv
 924      00000000 
 925              		.weak	_ZTV6Thread
 926              		.section	.data.rel.ro.local._ZTV6Thread,"awG",@progbits,_ZTV6Thread,comdat
 927              		.align	3
 930              	_ZTV6Thread:
 931 0000 00000000 		.dword	0
 931      00000000 
 932 0008 00000000 		.dword	0
 932      00000000 
 933 0010 00000000 		.dword	_ZN6ThreadD1Ev
 933      00000000 
 934 0018 00000000 		.dword	_ZN6ThreadD0Ev
 934      00000000 
 935 0020 00000000 		.dword	_ZN6Thread3runEv
 935      00000000 
 936              		.weak	_ZTV9Semaphore
 937              		.section	.data.rel.ro.local._ZTV9Semaphore,"awG",@progbits,_ZTV9Semaphore,comdat
 938              		.align	3
 941              	_ZTV9Semaphore:
 942 0000 00000000 		.dword	0
 942      00000000 
 943 0008 00000000 		.dword	0
 943      00000000 
 944 0010 00000000 		.dword	_ZN9SemaphoreD1Ev
 944      00000000 
 945 0018 00000000 		.dword	_ZN9SemaphoreD0Ev
 945      00000000 
 946              		.text
 947              	.Letext0:
 948              		.file 3 "src/../h/../lib/hw.h"
 949              		.file 4 "src/../h/syscall_c.h"
 3950              		.align	3
 3953              	DW.ref.__gxx_personality_v0:
 3954 0000 00000000 		.dword	__gxx_personality_v0
 3954      00000000 
 3955              		.ident	"GCC: (Ubuntu 9.4.0-1ubuntu1~20.04) 9.4.0"
 3956              		.section	.note.GNU-stack,"",@progbits
GAS LISTING /tmp/cc6SGE6u.s 			page 21


DEFINED SYMBOLS
                            *ABS*:0000000000000000 syscall_cpp.cpp
     /tmp/cc6SGE6u.s:10     .text._ZN6Thread3runEv:0000000000000000 _ZN6Thread3runEv
     /tmp/cc6SGE6u.s:14     .text._ZN6Thread3runEv:0000000000000000 .L0 
     /tmp/cc6SGE6u.s:16     .text._ZN6Thread3runEv:0000000000000000 .L0 
     /tmp/cc6SGE6u.s:17     .text._ZN6Thread3runEv:0000000000000004 .L0 
     /tmp/cc6SGE6u.s:19     .text._ZN6Thread3runEv:0000000000000008 .L0 
     /tmp/cc6SGE6u.s:21     .text._ZN6Thread3runEv:000000000000000c .L0 
     /tmp/cc6SGE6u.s:23     .text._ZN6Thread3runEv:000000000000000c .L0 
     /tmp/cc6SGE6u.s:24     .text._ZN6Thread3runEv:0000000000000010 .L0 
     /tmp/cc6SGE6u.s:25     .text._ZN6Thread3runEv:0000000000000010 .L0 
     /tmp/cc6SGE6u.s:27     .text._ZN6Thread3runEv:0000000000000014 .L0 
     /tmp/cc6SGE6u.s:29     .text._ZN6Thread3runEv:0000000000000018 .L0 
     /tmp/cc6SGE6u.s:36     .text._ZN14PeriodicThread18periodicActivationEv:0000000000000000 _ZN14PeriodicThread18periodicActivationEv
     /tmp/cc6SGE6u.s:39     .text._ZN14PeriodicThread18periodicActivationEv:0000000000000000 .L0 
     /tmp/cc6SGE6u.s:41     .text._ZN14PeriodicThread18periodicActivationEv:0000000000000000 .L0 
     /tmp/cc6SGE6u.s:42     .text._ZN14PeriodicThread18periodicActivationEv:0000000000000004 .L0 
     /tmp/cc6SGE6u.s:44     .text._ZN14PeriodicThread18periodicActivationEv:0000000000000008 .L0 
     /tmp/cc6SGE6u.s:46     .text._ZN14PeriodicThread18periodicActivationEv:000000000000000c .L0 
     /tmp/cc6SGE6u.s:48     .text._ZN14PeriodicThread18periodicActivationEv:000000000000000c .L0 
     /tmp/cc6SGE6u.s:49     .text._ZN14PeriodicThread18periodicActivationEv:0000000000000010 .L0 
     /tmp/cc6SGE6u.s:50     .text._ZN14PeriodicThread18periodicActivationEv:0000000000000010 .L0 
     /tmp/cc6SGE6u.s:52     .text._ZN14PeriodicThread18periodicActivationEv:0000000000000014 .L0 
     /tmp/cc6SGE6u.s:54     .text._ZN14PeriodicThread18periodicActivationEv:0000000000000018 .L0 
     /tmp/cc6SGE6u.s:61     .text:0000000000000000 _ZN6ThreadD2Ev
     /tmp/cc6SGE6u.s:65     .text:0000000000000000 .L0 
     /tmp/cc6SGE6u.s:3953   .data.rel.local.DW.ref.__gxx_personality_v0:0000000000000000 DW.ref.__gxx_personality_v0
     /tmp/cc6SGE6u.s:69     .text:0000000000000000 .L0 
     /tmp/cc6SGE6u.s:70     .text:0000000000000004 .L0 
     /tmp/cc6SGE6u.s:73     .text:000000000000000c .L0 
     /tmp/cc6SGE6u.s:74     .text:000000000000000c .L0 
     /tmp/cc6SGE6u.s:76     .text:0000000000000010 .L0 
     /tmp/cc6SGE6u.s:930    .data.rel.ro.local._ZTV6Thread:0000000000000000 _ZTV6Thread
     /tmp/cc6SGE6u.s:79     .text:0000000000000010 .L0 
     /tmp/cc6SGE6u.s:82     .text:000000000000001c .L0 
     /tmp/cc6SGE6u.s:83     .text:000000000000001c .L0 
     /tmp/cc6SGE6u.s:87     .text:0000000000000024 .L0 
     /tmp/cc6SGE6u.s:88     .text:0000000000000028 .L0 
     /tmp/cc6SGE6u.s:90     .text:000000000000002c .L0 
     /tmp/cc6SGE6u.s:91     .text:000000000000002c .L0 
     /tmp/cc6SGE6u.s:93     .text:0000000000000030 .L0 
     /tmp/cc6SGE6u.s:95     .text:0000000000000034 .L0 
     /tmp/cc6SGE6u.s:61     .text:0000000000000000 _ZN6ThreadD1Ev
     /tmp/cc6SGE6u.s:112    .text._ZN14PeriodicThreadD2Ev:0000000000000000 _ZN14PeriodicThreadD2Ev
     /tmp/cc6SGE6u.s:115    .text._ZN14PeriodicThreadD2Ev:0000000000000000 .L0 
     /tmp/cc6SGE6u.s:117    .text._ZN14PeriodicThreadD2Ev:0000000000000000 .L0 
     /tmp/cc6SGE6u.s:118    .text._ZN14PeriodicThreadD2Ev:0000000000000004 .L0 
     /tmp/cc6SGE6u.s:121    .text._ZN14PeriodicThreadD2Ev:000000000000000c .L0 
     /tmp/cc6SGE6u.s:122    .text._ZN14PeriodicThreadD2Ev:000000000000000c .L0 
     /tmp/cc6SGE6u.s:124    .text._ZN14PeriodicThreadD2Ev:0000000000000010 .L0 
     /tmp/cc6SGE6u.s:918    .data.rel.ro.local._ZTV14PeriodicThread:0000000000000000 _ZTV14PeriodicThread
     /tmp/cc6SGE6u.s:127    .text._ZN14PeriodicThreadD2Ev:0000000000000010 .L0 
     /tmp/cc6SGE6u.s:133    .text._ZN14PeriodicThreadD2Ev:0000000000000028 .L0 
     /tmp/cc6SGE6u.s:135    .text._ZN14PeriodicThreadD2Ev:000000000000002c .L0 
     /tmp/cc6SGE6u.s:136    .text._ZN14PeriodicThreadD2Ev:000000000000002c .L0 
     /tmp/cc6SGE6u.s:138    .text._ZN14PeriodicThreadD2Ev:0000000000000030 .L0 
     /tmp/cc6SGE6u.s:140    .text._ZN14PeriodicThreadD2Ev:0000000000000034 .L0 
GAS LISTING /tmp/cc6SGE6u.s 			page 22


     /tmp/cc6SGE6u.s:112    .text._ZN14PeriodicThreadD2Ev:0000000000000000 _ZN14PeriodicThreadD1Ev
     /tmp/cc6SGE6u.s:149    .text:0000000000000034 _ZN9SemaphoreD2Ev
     /tmp/cc6SGE6u.s:152    .text:0000000000000034 .L0 
     /tmp/cc6SGE6u.s:156    .text:0000000000000034 .L0 
     /tmp/cc6SGE6u.s:157    .text:0000000000000038 .L0 
     /tmp/cc6SGE6u.s:160    .text:0000000000000040 .L0 
     /tmp/cc6SGE6u.s:161    .text:0000000000000040 .L0 
     /tmp/cc6SGE6u.s:163    .text:0000000000000044 .L0 
     /tmp/cc6SGE6u.s:941    .data.rel.ro.local._ZTV9Semaphore:0000000000000000 _ZTV9Semaphore
     /tmp/cc6SGE6u.s:166    .text:0000000000000044 .L0 
     /tmp/cc6SGE6u.s:169    .text:0000000000000050 .L0 
     /tmp/cc6SGE6u.s:170    .text:0000000000000050 .L0 
     /tmp/cc6SGE6u.s:176    .text:000000000000005c .L0 
     /tmp/cc6SGE6u.s:177    .text:0000000000000060 .L0 
     /tmp/cc6SGE6u.s:179    .text:0000000000000064 .L0 
     /tmp/cc6SGE6u.s:180    .text:0000000000000064 .L0 
     /tmp/cc6SGE6u.s:182    .text:0000000000000068 .L0 
     /tmp/cc6SGE6u.s:184    .text:000000000000006c .L0 
     /tmp/cc6SGE6u.s:149    .text:0000000000000034 _ZN9SemaphoreD1Ev
     /tmp/cc6SGE6u.s:199    .text:000000000000006c _Znwm
     /tmp/cc6SGE6u.s:202    .text:000000000000006c .L0 
     /tmp/cc6SGE6u.s:204    .text:000000000000006c .L0 
     /tmp/cc6SGE6u.s:205    .text:0000000000000070 .L0 
     /tmp/cc6SGE6u.s:208    .text:0000000000000078 .L0 
     /tmp/cc6SGE6u.s:209    .text:0000000000000078 .L0 
     /tmp/cc6SGE6u.s:211    .text:000000000000007c .L0 
     /tmp/cc6SGE6u.s:213    .text:000000000000007c .L0 
     /tmp/cc6SGE6u.s:214    .text:000000000000007c .L0 
     /tmp/cc6SGE6u.s:217    .text:0000000000000084 .L0 
     /tmp/cc6SGE6u.s:218    .text:0000000000000088 .L0 
     /tmp/cc6SGE6u.s:220    .text:000000000000008c .L0 
     /tmp/cc6SGE6u.s:221    .text:000000000000008c .L0 
     /tmp/cc6SGE6u.s:223    .text:0000000000000090 .L0 
     /tmp/cc6SGE6u.s:225    .text:0000000000000094 .L0 
     /tmp/cc6SGE6u.s:231    .text:0000000000000094 _ZdlPv
     /tmp/cc6SGE6u.s:234    .text:0000000000000094 .L0 
     /tmp/cc6SGE6u.s:236    .text:0000000000000094 .L0 
     /tmp/cc6SGE6u.s:237    .text:0000000000000098 .L0 
     /tmp/cc6SGE6u.s:240    .text:00000000000000a0 .L0 
     /tmp/cc6SGE6u.s:241    .text:00000000000000a0 .L0 
     /tmp/cc6SGE6u.s:243    .text:00000000000000a4 .L0 
     /tmp/cc6SGE6u.s:245    .text:00000000000000a4 .L0 
     /tmp/cc6SGE6u.s:246    .text:00000000000000a4 .L0 
     /tmp/cc6SGE6u.s:249    .text:00000000000000ac .L0 
     /tmp/cc6SGE6u.s:250    .text:00000000000000b0 .L0 
     /tmp/cc6SGE6u.s:252    .text:00000000000000b4 .L0 
     /tmp/cc6SGE6u.s:253    .text:00000000000000b4 .L0 
     /tmp/cc6SGE6u.s:255    .text:00000000000000b8 .L0 
     /tmp/cc6SGE6u.s:257    .text:00000000000000bc .L0 
     /tmp/cc6SGE6u.s:263    .text:00000000000000bc _ZN6ThreadD0Ev
     /tmp/cc6SGE6u.s:266    .text:00000000000000bc .L0 
     /tmp/cc6SGE6u.s:268    .text:00000000000000bc .L0 
     /tmp/cc6SGE6u.s:269    .text:00000000000000c0 .L0 
     /tmp/cc6SGE6u.s:273    .text:00000000000000cc .L0 
     /tmp/cc6SGE6u.s:274    .text:00000000000000cc .L0 
     /tmp/cc6SGE6u.s:275    .text:00000000000000cc .L0 
     /tmp/cc6SGE6u.s:277    .text:00000000000000d0 .L0 
GAS LISTING /tmp/cc6SGE6u.s 			page 23


     /tmp/cc6SGE6u.s:280    .text:00000000000000d4 .L0 
     /tmp/cc6SGE6u.s:286    .text:00000000000000ec .L0 
     /tmp/cc6SGE6u.s:288    .text:00000000000000f0 .L0 
     /tmp/cc6SGE6u.s:289    .text:00000000000000f0 .L0 
     /tmp/cc6SGE6u.s:291    .text:00000000000000f4 .L0 
     /tmp/cc6SGE6u.s:294    .text:00000000000000f8 .L0 
     /tmp/cc6SGE6u.s:296    .text:00000000000000fc .L0 
     /tmp/cc6SGE6u.s:302    .text:00000000000000fc _ZN9SemaphoreD0Ev
     /tmp/cc6SGE6u.s:305    .text:00000000000000fc .L0 
     /tmp/cc6SGE6u.s:307    .text:00000000000000fc .L0 
     /tmp/cc6SGE6u.s:308    .text:0000000000000100 .L0 
     /tmp/cc6SGE6u.s:312    .text:000000000000010c .L0 
     /tmp/cc6SGE6u.s:313    .text:000000000000010c .L0 
     /tmp/cc6SGE6u.s:314    .text:000000000000010c .L0 
     /tmp/cc6SGE6u.s:316    .text:0000000000000110 .L0 
     /tmp/cc6SGE6u.s:319    .text:0000000000000114 .L0 
     /tmp/cc6SGE6u.s:325    .text:000000000000012c .L0 
     /tmp/cc6SGE6u.s:327    .text:0000000000000130 .L0 
     /tmp/cc6SGE6u.s:328    .text:0000000000000130 .L0 
     /tmp/cc6SGE6u.s:330    .text:0000000000000134 .L0 
     /tmp/cc6SGE6u.s:333    .text:0000000000000138 .L0 
     /tmp/cc6SGE6u.s:335    .text:000000000000013c .L0 
     /tmp/cc6SGE6u.s:342    .text._ZN14PeriodicThreadD0Ev:0000000000000000 _ZN14PeriodicThreadD0Ev
     /tmp/cc6SGE6u.s:345    .text._ZN14PeriodicThreadD0Ev:0000000000000000 .L0 
     /tmp/cc6SGE6u.s:347    .text._ZN14PeriodicThreadD0Ev:0000000000000000 .L0 
     /tmp/cc6SGE6u.s:348    .text._ZN14PeriodicThreadD0Ev:0000000000000004 .L0 
     /tmp/cc6SGE6u.s:352    .text._ZN14PeriodicThreadD0Ev:0000000000000010 .L0 
     /tmp/cc6SGE6u.s:353    .text._ZN14PeriodicThreadD0Ev:0000000000000010 .L0 
     /tmp/cc6SGE6u.s:354    .text._ZN14PeriodicThreadD0Ev:0000000000000010 .L0 
     /tmp/cc6SGE6u.s:356    .text._ZN14PeriodicThreadD0Ev:0000000000000014 .L0 
     /tmp/cc6SGE6u.s:362    .text._ZN14PeriodicThreadD0Ev:0000000000000018 .L0 
     /tmp/cc6SGE6u.s:372    .text._ZN14PeriodicThreadD0Ev:000000000000003c .L0 
     /tmp/cc6SGE6u.s:374    .text._ZN14PeriodicThreadD0Ev:0000000000000040 .L0 
     /tmp/cc6SGE6u.s:375    .text._ZN14PeriodicThreadD0Ev:0000000000000040 .L0 
     /tmp/cc6SGE6u.s:377    .text._ZN14PeriodicThreadD0Ev:0000000000000044 .L0 
     /tmp/cc6SGE6u.s:380    .text._ZN14PeriodicThreadD0Ev:0000000000000048 .L0 
     /tmp/cc6SGE6u.s:382    .text._ZN14PeriodicThreadD0Ev:000000000000004c .L0 
     /tmp/cc6SGE6u.s:389    .text:000000000000013c _ZN6ThreadC2EPFvPvES0_
     /tmp/cc6SGE6u.s:392    .text:000000000000013c .L0 
     /tmp/cc6SGE6u.s:394    .text:000000000000013c .L0 
     /tmp/cc6SGE6u.s:395    .text:0000000000000140 .L0 
     /tmp/cc6SGE6u.s:397    .text:0000000000000144 .L0 
     /tmp/cc6SGE6u.s:399    .text:0000000000000148 .L0 
     /tmp/cc6SGE6u.s:402    .text:0000000000000148 .L0 
     /tmp/cc6SGE6u.s:405    .text:0000000000000154 .L0 
     /tmp/cc6SGE6u.s:406    .text:0000000000000154 .L0 
     /tmp/cc6SGE6u.s:408    .text:0000000000000158 .L0 
     /tmp/cc6SGE6u.s:409    .text:0000000000000158 .L0 
     /tmp/cc6SGE6u.s:412    .text:000000000000015c .L0 
     /tmp/cc6SGE6u.s:413    .text:0000000000000160 .L0 
     /tmp/cc6SGE6u.s:414    .text:0000000000000160 .L0 
     /tmp/cc6SGE6u.s:416    .text:0000000000000164 .L0 
     /tmp/cc6SGE6u.s:418    .text:0000000000000168 .L0 
     /tmp/cc6SGE6u.s:389    .text:000000000000013c _ZN6ThreadC1EPFvPvES0_
     /tmp/cc6SGE6u.s:426    .text:0000000000000168 _ZN6Thread5sleepEm
     /tmp/cc6SGE6u.s:429    .text:0000000000000168 .L0 
     /tmp/cc6SGE6u.s:431    .text:0000000000000168 .L0 
GAS LISTING /tmp/cc6SGE6u.s 			page 24


     /tmp/cc6SGE6u.s:432    .text:000000000000016c .L0 
     /tmp/cc6SGE6u.s:435    .text:0000000000000174 .L0 
     /tmp/cc6SGE6u.s:436    .text:0000000000000174 .L0 
     /tmp/cc6SGE6u.s:438    .text:0000000000000178 .L0 
     /tmp/cc6SGE6u.s:440    .text:0000000000000178 .L0 
     /tmp/cc6SGE6u.s:441    .text:0000000000000178 .L0 
     /tmp/cc6SGE6u.s:444    .text:0000000000000180 .L0 
     /tmp/cc6SGE6u.s:445    .text:0000000000000184 .L0 
     /tmp/cc6SGE6u.s:447    .text:0000000000000188 .L0 
     /tmp/cc6SGE6u.s:448    .text:0000000000000188 .L0 
     /tmp/cc6SGE6u.s:450    .text:000000000000018c .L0 
     /tmp/cc6SGE6u.s:452    .text:0000000000000190 .L0 
     /tmp/cc6SGE6u.s:458    .text:0000000000000190 _ZN6Thread8dispatchEv
     /tmp/cc6SGE6u.s:461    .text:0000000000000190 .L0 
     /tmp/cc6SGE6u.s:462    .text:0000000000000190 .L0 
     /tmp/cc6SGE6u.s:463    .text:0000000000000194 .L0 
     /tmp/cc6SGE6u.s:466    .text:000000000000019c .L0 
     /tmp/cc6SGE6u.s:467    .text:000000000000019c .L0 
     /tmp/cc6SGE6u.s:469    .text:00000000000001a0 .L0 
     /tmp/cc6SGE6u.s:471    .text:00000000000001a0 .L0 
     /tmp/cc6SGE6u.s:472    .text:00000000000001a0 .L0 
     /tmp/cc6SGE6u.s:475    .text:00000000000001a8 .L0 
     /tmp/cc6SGE6u.s:476    .text:00000000000001ac .L0 
     /tmp/cc6SGE6u.s:478    .text:00000000000001b0 .L0 
     /tmp/cc6SGE6u.s:479    .text:00000000000001b0 .L0 
     /tmp/cc6SGE6u.s:481    .text:00000000000001b4 .L0 
     /tmp/cc6SGE6u.s:483    .text:00000000000001b8 .L0 
     /tmp/cc6SGE6u.s:489    .text:00000000000001b8 _ZN6ThreadC2Ev
     /tmp/cc6SGE6u.s:492    .text:00000000000001b8 .L0 
     /tmp/cc6SGE6u.s:494    .text:00000000000001b8 .L0 
     /tmp/cc6SGE6u.s:495    .text:00000000000001bc .L0 
     /tmp/cc6SGE6u.s:497    .text:00000000000001c0 .L0 
     /tmp/cc6SGE6u.s:499    .text:00000000000001c4 .L0 
     /tmp/cc6SGE6u.s:502    .text:00000000000001c4 .L0 
     /tmp/cc6SGE6u.s:505    .text:00000000000001d0 .L0 
     /tmp/cc6SGE6u.s:506    .text:00000000000001d0 .L0 
     /tmp/cc6SGE6u.s:508    .text:00000000000001d4 .L0 
     /tmp/cc6SGE6u.s:509    .text:00000000000001d4 .L0 
     /tmp/cc6SGE6u.s:512    .text:00000000000001d8 .L0 
     /tmp/cc6SGE6u.s:513    .text:00000000000001dc .L0 
     /tmp/cc6SGE6u.s:514    .text:00000000000001dc .L0 
     /tmp/cc6SGE6u.s:516    .text:00000000000001e0 .L0 
     /tmp/cc6SGE6u.s:518    .text:00000000000001e4 .L0 
     /tmp/cc6SGE6u.s:489    .text:00000000000001b8 _ZN6ThreadC1Ev
     /tmp/cc6SGE6u.s:526    .text:00000000000001e4 _ZN6Thread5startEv
     /tmp/cc6SGE6u.s:529    .text:00000000000001e4 .L0 
     /tmp/cc6SGE6u.s:531    .text:00000000000001e4 .L0 
     /tmp/cc6SGE6u.s:532    .text:00000000000001e8 .L0 
     /tmp/cc6SGE6u.s:535    .text:00000000000001f0 .L0 
     /tmp/cc6SGE6u.s:536    .text:00000000000001f0 .L0 
     /tmp/cc6SGE6u.s:538    .text:00000000000001f4 .L0 
     /tmp/cc6SGE6u.s:540    .text:00000000000001f4 .L0 
     /tmp/cc6SGE6u.s:541    .text:00000000000001f4 .L0 
     /tmp/cc6SGE6u.s:548    .text:0000000000000208 .L0 
     /tmp/cc6SGE6u.s:549    .text:000000000000020c .L0 
     /tmp/cc6SGE6u.s:551    .text:0000000000000210 .L0 
     /tmp/cc6SGE6u.s:552    .text:0000000000000210 .L0 
GAS LISTING /tmp/cc6SGE6u.s 			page 25


     /tmp/cc6SGE6u.s:554    .text:0000000000000214 .L0 
     /tmp/cc6SGE6u.s:556    .text:0000000000000218 .L0 
     /tmp/cc6SGE6u.s:562    .text:0000000000000218 _ZN9SemaphoreC2Ej
     /tmp/cc6SGE6u.s:565    .text:0000000000000218 .L0 
     /tmp/cc6SGE6u.s:567    .text:0000000000000218 .L0 
     /tmp/cc6SGE6u.s:568    .text:000000000000021c .L0 
     /tmp/cc6SGE6u.s:571    .text:0000000000000224 .L0 
     /tmp/cc6SGE6u.s:572    .text:0000000000000224 .L0 
     /tmp/cc6SGE6u.s:574    .text:0000000000000228 .L0 
     /tmp/cc6SGE6u.s:577    .text:0000000000000228 .L0 
     /tmp/cc6SGE6u.s:580    .text:0000000000000234 .L0 
     /tmp/cc6SGE6u.s:581    .text:0000000000000234 .L0 
     /tmp/cc6SGE6u.s:587    .text:0000000000000240 .L0 
     /tmp/cc6SGE6u.s:588    .text:0000000000000244 .L0 
     /tmp/cc6SGE6u.s:590    .text:0000000000000248 .L0 
     /tmp/cc6SGE6u.s:591    .text:0000000000000248 .L0 
     /tmp/cc6SGE6u.s:593    .text:000000000000024c .L0 
     /tmp/cc6SGE6u.s:595    .text:0000000000000250 .L0 
     /tmp/cc6SGE6u.s:562    .text:0000000000000218 _ZN9SemaphoreC1Ej
     /tmp/cc6SGE6u.s:603    .text:0000000000000250 _ZN9Semaphore4waitEv
     /tmp/cc6SGE6u.s:606    .text:0000000000000250 .L0 
     /tmp/cc6SGE6u.s:608    .text:0000000000000250 .L0 
     /tmp/cc6SGE6u.s:609    .text:0000000000000254 .L0 
     /tmp/cc6SGE6u.s:612    .text:000000000000025c .L0 
     /tmp/cc6SGE6u.s:613    .text:000000000000025c .L0 
     /tmp/cc6SGE6u.s:615    .text:0000000000000260 .L0 
     /tmp/cc6SGE6u.s:617    .text:0000000000000260 .L0 
     /tmp/cc6SGE6u.s:618    .text:0000000000000260 .L0 
     /tmp/cc6SGE6u.s:623    .text:000000000000026c .L0 
     /tmp/cc6SGE6u.s:624    .text:0000000000000270 .L0 
     /tmp/cc6SGE6u.s:626    .text:0000000000000274 .L0 
     /tmp/cc6SGE6u.s:627    .text:0000000000000274 .L0 
     /tmp/cc6SGE6u.s:629    .text:0000000000000278 .L0 
     /tmp/cc6SGE6u.s:631    .text:000000000000027c .L0 
     /tmp/cc6SGE6u.s:637    .text:000000000000027c _ZN9Semaphore6signalEv
     /tmp/cc6SGE6u.s:640    .text:000000000000027c .L0 
     /tmp/cc6SGE6u.s:642    .text:000000000000027c .L0 
     /tmp/cc6SGE6u.s:643    .text:0000000000000280 .L0 
     /tmp/cc6SGE6u.s:646    .text:0000000000000288 .L0 
     /tmp/cc6SGE6u.s:647    .text:0000000000000288 .L0 
     /tmp/cc6SGE6u.s:649    .text:000000000000028c .L0 
     /tmp/cc6SGE6u.s:651    .text:000000000000028c .L0 
     /tmp/cc6SGE6u.s:652    .text:000000000000028c .L0 
     /tmp/cc6SGE6u.s:657    .text:0000000000000298 .L0 
     /tmp/cc6SGE6u.s:658    .text:000000000000029c .L0 
     /tmp/cc6SGE6u.s:660    .text:00000000000002a0 .L0 
     /tmp/cc6SGE6u.s:661    .text:00000000000002a0 .L0 
     /tmp/cc6SGE6u.s:663    .text:00000000000002a4 .L0 
     /tmp/cc6SGE6u.s:665    .text:00000000000002a8 .L0 
     /tmp/cc6SGE6u.s:671    .text:00000000000002a8 _ZN9Semaphore9timedWaitEm
     /tmp/cc6SGE6u.s:674    .text:00000000000002a8 .L0 
     /tmp/cc6SGE6u.s:676    .text:00000000000002a8 .L0 
     /tmp/cc6SGE6u.s:677    .text:00000000000002ac .L0 
     /tmp/cc6SGE6u.s:680    .text:00000000000002b4 .L0 
     /tmp/cc6SGE6u.s:681    .text:00000000000002b4 .L0 
     /tmp/cc6SGE6u.s:683    .text:00000000000002b8 .L0 
     /tmp/cc6SGE6u.s:685    .text:00000000000002b8 .L0 
GAS LISTING /tmp/cc6SGE6u.s 			page 26


     /tmp/cc6SGE6u.s:686    .text:00000000000002b8 .L0 
     /tmp/cc6SGE6u.s:691    .text:00000000000002c4 .L0 
     /tmp/cc6SGE6u.s:692    .text:00000000000002c8 .L0 
     /tmp/cc6SGE6u.s:694    .text:00000000000002cc .L0 
     /tmp/cc6SGE6u.s:695    .text:00000000000002cc .L0 
     /tmp/cc6SGE6u.s:697    .text:00000000000002d0 .L0 
     /tmp/cc6SGE6u.s:699    .text:00000000000002d4 .L0 
     /tmp/cc6SGE6u.s:705    .text:00000000000002d4 _ZN9Semaphore7tryWaitEv
     /tmp/cc6SGE6u.s:708    .text:00000000000002d4 .L0 
     /tmp/cc6SGE6u.s:710    .text:00000000000002d4 .L0 
     /tmp/cc6SGE6u.s:711    .text:00000000000002d8 .L0 
     /tmp/cc6SGE6u.s:714    .text:00000000000002e0 .L0 
     /tmp/cc6SGE6u.s:715    .text:00000000000002e0 .L0 
     /tmp/cc6SGE6u.s:717    .text:00000000000002e4 .L0 
     /tmp/cc6SGE6u.s:719    .text:00000000000002e4 .L0 
     /tmp/cc6SGE6u.s:720    .text:00000000000002e4 .L0 
     /tmp/cc6SGE6u.s:725    .text:00000000000002f0 .L0 
     /tmp/cc6SGE6u.s:726    .text:00000000000002f4 .L0 
     /tmp/cc6SGE6u.s:728    .text:00000000000002f8 .L0 
     /tmp/cc6SGE6u.s:729    .text:00000000000002f8 .L0 
     /tmp/cc6SGE6u.s:731    .text:00000000000002fc .L0 
     /tmp/cc6SGE6u.s:733    .text:0000000000000300 .L0 
     /tmp/cc6SGE6u.s:739    .text:0000000000000300 _ZN7Console4getcEv
     /tmp/cc6SGE6u.s:742    .text:0000000000000300 .L0 
     /tmp/cc6SGE6u.s:743    .text:0000000000000300 .L0 
     /tmp/cc6SGE6u.s:744    .text:0000000000000304 .L0 
     /tmp/cc6SGE6u.s:747    .text:000000000000030c .L0 
     /tmp/cc6SGE6u.s:748    .text:000000000000030c .L0 
     /tmp/cc6SGE6u.s:750    .text:0000000000000310 .L0 
     /tmp/cc6SGE6u.s:752    .text:0000000000000310 .L0 
     /tmp/cc6SGE6u.s:753    .text:0000000000000310 .L0 
     /tmp/cc6SGE6u.s:756    .text:0000000000000318 .L0 
     /tmp/cc6SGE6u.s:757    .text:000000000000031c .L0 
     /tmp/cc6SGE6u.s:759    .text:0000000000000320 .L0 
     /tmp/cc6SGE6u.s:760    .text:0000000000000320 .L0 
     /tmp/cc6SGE6u.s:762    .text:0000000000000324 .L0 
     /tmp/cc6SGE6u.s:764    .text:0000000000000328 .L0 
     /tmp/cc6SGE6u.s:770    .text:0000000000000328 _ZN7Console4putcEc
     /tmp/cc6SGE6u.s:773    .text:0000000000000328 .L0 
     /tmp/cc6SGE6u.s:775    .text:0000000000000328 .L0 
     /tmp/cc6SGE6u.s:776    .text:000000000000032c .L0 
     /tmp/cc6SGE6u.s:779    .text:0000000000000334 .L0 
     /tmp/cc6SGE6u.s:780    .text:0000000000000334 .L0 
     /tmp/cc6SGE6u.s:782    .text:0000000000000338 .L0 
     /tmp/cc6SGE6u.s:784    .text:0000000000000338 .L0 
     /tmp/cc6SGE6u.s:785    .text:0000000000000338 .L0 
     /tmp/cc6SGE6u.s:788    .text:0000000000000340 .L0 
     /tmp/cc6SGE6u.s:789    .text:0000000000000344 .L0 
     /tmp/cc6SGE6u.s:791    .text:0000000000000348 .L0 
     /tmp/cc6SGE6u.s:792    .text:0000000000000348 .L0 
     /tmp/cc6SGE6u.s:794    .text:000000000000034c .L0 
     /tmp/cc6SGE6u.s:796    .text:0000000000000350 .L0 
     /tmp/cc6SGE6u.s:802    .text:0000000000000350 _ZN14PeriodicThreadC2Em
     /tmp/cc6SGE6u.s:805    .text:0000000000000350 .L0 
     /tmp/cc6SGE6u.s:809    .text:0000000000000350 .L0 
     /tmp/cc6SGE6u.s:810    .text:0000000000000354 .L0 
     /tmp/cc6SGE6u.s:815    .text:0000000000000364 .L0 
GAS LISTING /tmp/cc6SGE6u.s 			page 27


     /tmp/cc6SGE6u.s:816    .text:0000000000000364 .L0 
     /tmp/cc6SGE6u.s:817    .text:0000000000000364 .L0 
     /tmp/cc6SGE6u.s:818    .text:0000000000000364 .L0 
     /tmp/cc6SGE6u.s:820    .text:0000000000000368 .L0 
     /tmp/cc6SGE6u.s:825    .text:0000000000000370 .L0 
     /tmp/cc6SGE6u.s:830    .text:0000000000000384 .L0 
     /tmp/cc6SGE6u.s:831    .text:0000000000000384 .L0 
     /tmp/cc6SGE6u.s:833    .text:0000000000000388 .L0 
     /tmp/cc6SGE6u.s:834    .text:0000000000000388 .L0 
     /tmp/cc6SGE6u.s:840    .text:0000000000000394 .L0 
     /tmp/cc6SGE6u.s:841    .text:0000000000000394 .L0 
     /tmp/cc6SGE6u.s:842    .text:0000000000000394 .L0 
     /tmp/cc6SGE6u.s:843    .text:0000000000000394 .L0 
     /tmp/cc6SGE6u.s:852    .text:00000000000003a8 .L0 
     /tmp/cc6SGE6u.s:861    .text:00000000000003c0 .L0 
     /tmp/cc6SGE6u.s:802    .text:0000000000000350 _ZN14PeriodicThreadC1Em
     /tmp/cc6SGE6u.s:884    .text:00000000000003c0 _ZN14PeriodicThread9terminateEv
     /tmp/cc6SGE6u.s:887    .text:00000000000003c0 .L0 
     /tmp/cc6SGE6u.s:889    .text:00000000000003c0 .L0 
     /tmp/cc6SGE6u.s:890    .text:00000000000003c4 .L0 
     /tmp/cc6SGE6u.s:893    .text:00000000000003cc .L0 
     /tmp/cc6SGE6u.s:894    .text:00000000000003cc .L0 
     /tmp/cc6SGE6u.s:896    .text:00000000000003d0 .L0 
     /tmp/cc6SGE6u.s:898    .text:00000000000003d0 .L0 
     /tmp/cc6SGE6u.s:899    .text:00000000000003d0 .L0 
     /tmp/cc6SGE6u.s:902    .text:00000000000003d8 .L0 
     /tmp/cc6SGE6u.s:903    .text:00000000000003dc .L0 
     /tmp/cc6SGE6u.s:905    .text:00000000000003e0 .L0 
     /tmp/cc6SGE6u.s:906    .text:00000000000003e0 .L0 
     /tmp/cc6SGE6u.s:908    .text:00000000000003e4 .L0 
     /tmp/cc6SGE6u.s:910    .text:00000000000003e8 .L0 
     /tmp/cc6SGE6u.s:32     .text._ZN6Thread3runEv:0000000000000018 .L0 
     /tmp/cc6SGE6u.s:57     .text._ZN14PeriodicThread18periodicActivationEv:0000000000000018 .L0 
     /tmp/cc6SGE6u.s:950    .text:00000000000003e8 .L0 
     /tmp/cc6SGE6u.s:145    .text._ZN14PeriodicThreadD2Ev:0000000000000034 .L0 
     /tmp/cc6SGE6u.s:385    .text._ZN14PeriodicThreadD0Ev:000000000000004c .L0 
     /tmp/cc6SGE6u.s:79     .text:0000000000000010 .L0 
     /tmp/cc6SGE6u.s:166    .text:0000000000000044 .L0 
     /tmp/cc6SGE6u.s:402    .text:0000000000000148 .L0 
     /tmp/cc6SGE6u.s:502    .text:00000000000001c4 .L0 
     /tmp/cc6SGE6u.s:577    .text:0000000000000228 .L0 
     /tmp/cc6SGE6u.s:827    .text:0000000000000378 .L0 
     /tmp/cc6SGE6u.s:838    .text:0000000000000394 .L46
     /tmp/cc6SGE6u.s:835    .text:000000000000038c .LEHB0
     /tmp/cc6SGE6u.s:803    .text:0000000000000350 .LFB31
     /tmp/cc6SGE6u.s:846    .text:00000000000003a0 .LEHE0
     /tmp/cc6SGE6u.s:848    .text:00000000000003a4 .L48
     /tmp/cc6SGE6u.s:856    .text:00000000000003b8 .LEHB1
     /tmp/cc6SGE6u.s:859    .text:00000000000003c0 .LEHE1
     /tmp/cc6SGE6u.s:127    .text._ZN14PeriodicThreadD2Ev:0000000000000010 .L0 
     /tmp/cc6SGE6u.s:362    .text._ZN14PeriodicThreadD0Ev:0000000000000018 .L0 
     /tmp/cc6SGE6u.s:2330   .debug_abbrev:0000000000000000 .Ldebug_abbrev0
     /tmp/cc6SGE6u.s:3907   .debug_str:00000000000005e9 .LASF105
     /tmp/cc6SGE6u.s:3887   .debug_str:000000000000054b .LASF106
     /tmp/cc6SGE6u.s:3827   .debug_str:0000000000000372 .LASF107
     /tmp/cc6SGE6u.s:3691   .debug_ranges:0000000000000000 .Ldebug_ranges0
     /tmp/cc6SGE6u.s:3705   .debug_line:0000000000000000 .Ldebug_line0
GAS LISTING /tmp/cc6SGE6u.s 			page 28


     /tmp/cc6SGE6u.s:3843   .debug_str:0000000000000405 .LASF0
     /tmp/cc6SGE6u.s:3853   .debug_str:0000000000000448 .LASF1
     /tmp/cc6SGE6u.s:3833   .debug_str:00000000000003b8 .LASF2
     /tmp/cc6SGE6u.s:3807   .debug_str:00000000000002f0 .LASF4
     /tmp/cc6SGE6u.s:3895   .debug_str:0000000000000589 .LASF3
     /tmp/cc6SGE6u.s:3735   .debug_str:00000000000000cd .LASF5
     /tmp/cc6SGE6u.s:3763   .debug_str:00000000000001cb .LASF6
     /tmp/cc6SGE6u.s:3859   .debug_str:000000000000047f .LASF7
     /tmp/cc6SGE6u.s:3841   .debug_str:00000000000003f2 .LASF8
     /tmp/cc6SGE6u.s:3921   .debug_str:0000000000000708 .LASF9
     /tmp/cc6SGE6u.s:3791   .debug_str:000000000000028e .LASF10
     /tmp/cc6SGE6u.s:3869   .debug_str:00000000000004c0 .LASF11
     /tmp/cc6SGE6u.s:3909   .debug_str:00000000000006ad .LASF12
     /tmp/cc6SGE6u.s:3737   .debug_str:00000000000000d4 .LASF13
     /tmp/cc6SGE6u.s:3711   .debug_str:0000000000000013 .LASF14
     /tmp/cc6SGE6u.s:3749   .debug_str:0000000000000145 .LASF15
     /tmp/cc6SGE6u.s:3891   .debug_str:000000000000056a .LASF16
     /tmp/cc6SGE6u.s:3759   .debug_str:00000000000001aa .LASF17
     /tmp/cc6SGE6u.s:3707   .debug_str:0000000000000000 .LASF18
     /tmp/cc6SGE6u.s:3803   .debug_str:00000000000002e3 .LASF20
     /tmp/cc6SGE6u.s:3771   .debug_str:00000000000001ff .LASF19
     /tmp/cc6SGE6u.s:3805   .debug_str:00000000000002eb .LASF21
     /tmp/cc6SGE6u.s:3801   .debug_str:00000000000002db .LASF108
     /tmp/cc6SGE6u.s:3713   .debug_str:0000000000000023 .LASF84
     /tmp/cc6SGE6u.s:3743   .debug_str:0000000000000108 .LASF109
     /tmp/cc6SGE6u.s:3835   .debug_str:00000000000003c6 .LASF23
     /tmp/cc6SGE6u.s:3855   .debug_str:000000000000045b .LASF110
     /tmp/cc6SGE6u.s:3861   .debug_str:0000000000000492 .LASF22
     /tmp/cc6SGE6u.s:3709   .debug_str:0000000000000009 .LASF24
     /tmp/cc6SGE6u.s:3819   .debug_str:000000000000032d .LASF34
     /tmp/cc6SGE6u.s:3733   .debug_str:00000000000000bd .LASF36
     /tmp/cc6SGE6u.s:3913   .debug_str:00000000000006d4 .LASF38
     /tmp/cc6SGE6u.s:3885   .debug_str:0000000000000540 .LASF40
     /tmp/cc6SGE6u.s:3745   .debug_str:000000000000011b .LASF42
     /tmp/cc6SGE6u.s:3777   .debug_str:000000000000021c .LASF25
     /tmp/cc6SGE6u.s:3881   .debug_str:0000000000000514 .LASF27
     /tmp/cc6SGE6u.s:3863   .debug_str:0000000000000497 .LASF26
     /tmp/cc6SGE6u.s:3883   .debug_str:0000000000000529 .LASF28
     /tmp/cc6SGE6u.s:3879   .debug_str:000000000000050a .LASF29
     /tmp/cc6SGE6u.s:3821   .debug_str:0000000000000342 .LASF30
     /tmp/cc6SGE6u.s:3927   .debug_str:0000000000000737 .LASF31
     /tmp/cc6SGE6u.s:3747   .debug_str:000000000000012d .LASF32
     /tmp/cc6SGE6u.s:3939   .debug_str:0000000000000795 .LASF49
     /tmp/cc6SGE6u.s:3923   .debug_str:0000000000000718 .LASF111
     /tmp/cc6SGE6u.s:3915   .debug_str:00000000000006e6 .LASF33
     /tmp/cc6SGE6u.s:3837   .debug_str:00000000000003cb .LASF35
     /tmp/cc6SGE6u.s:3831   .debug_str:00000000000003ab .LASF37
     /tmp/cc6SGE6u.s:3873   .debug_str:00000000000004d9 .LASF39
     /tmp/cc6SGE6u.s:3817   .debug_str:0000000000000325 .LASF41
     /tmp/cc6SGE6u.s:3849   .debug_str:0000000000000433 .LASF43
     /tmp/cc6SGE6u.s:3851   .debug_str:0000000000000442 .LASF44
     /tmp/cc6SGE6u.s:3789   .debug_str:000000000000027b .LASF45
     /tmp/cc6SGE6u.s:3845   .debug_str:0000000000000412 .LASF112
     /tmp/cc6SGE6u.s:3785   .debug_str:000000000000024d .LASF113
     /tmp/cc6SGE6u.s:3943   .debug_str:00000000000007c3 .LASF46
     /tmp/cc6SGE6u.s:3793   .debug_str:000000000000029c .LASF47
     /tmp/cc6SGE6u.s:3919   .debug_str:00000000000006f9 .LASF48
GAS LISTING /tmp/cc6SGE6u.s 			page 29


     /tmp/cc6SGE6u.s:3779   .debug_str:0000000000000221 .LASF114
     /tmp/cc6SGE6u.s:3813   .debug_str:0000000000000316 .LASF50
     /tmp/cc6SGE6u.s:3865   .debug_str:000000000000049e .LASF51
     /tmp/cc6SGE6u.s:3723   .debug_str:0000000000000063 .LASF52
     /tmp/cc6SGE6u.s:3933   .debug_str:000000000000075a .LASF53
     /tmp/cc6SGE6u.s:3727   .debug_str:0000000000000089 .LASF54
     /tmp/cc6SGE6u.s:3903   .debug_str:00000000000005ba .LASF55
     /tmp/cc6SGE6u.s:3731   .debug_str:00000000000000a5 .LASF56
     /tmp/cc6SGE6u.s:3715   .debug_str:0000000000000028 .LASF57
     /tmp/cc6SGE6u.s:3753   .debug_str:000000000000015a .LASF115
     /tmp/cc6SGE6u.s:3809   .debug_str:00000000000002f7 .LASF58
     /tmp/cc6SGE6u.s:3937   .debug_str:0000000000000785 .LASF116
     /tmp/cc6SGE6u.s:3811   .debug_str:00000000000002fe .LASF117
     /tmp/cc6SGE6u.s:3877   .debug_str:0000000000000505 .LASF59
     /tmp/cc6SGE6u.s:3871   .debug_str:00000000000004cf .LASF60
     /tmp/cc6SGE6u.s:3911   .debug_str:00000000000006bc .LASF61
     /tmp/cc6SGE6u.s:343    .text._ZN14PeriodicThreadD0Ev:0000000000000000 .LFB37
     /tmp/cc6SGE6u.s:383    .text._ZN14PeriodicThreadD0Ev:000000000000004c .LFE37
     /tmp/cc6SGE6u.s:3340   .debug_loc:0000000000000000 .LLST7
     /tmp/cc6SGE6u.s:359    .text._ZN14PeriodicThreadD0Ev:0000000000000018 .LBB11
     /tmp/cc6SGE6u.s:367    .text._ZN14PeriodicThreadD0Ev:000000000000002c .LBE11
     /tmp/cc6SGE6u.s:3358   .debug_loc:000000000000004c .LLST8
     /tmp/cc6SGE6u.s:365    .text._ZN14PeriodicThreadD0Ev:000000000000002c .LVL23
     /tmp/cc6SGE6u.s:370    .text._ZN14PeriodicThreadD0Ev:0000000000000038 .LVL24
     /tmp/cc6SGE6u.s:3847   .debug_str:000000000000041b .LASF62
     /tmp/cc6SGE6u.s:113    .text._ZN14PeriodicThreadD2Ev:0000000000000000 .LFB35
     /tmp/cc6SGE6u.s:141    .text._ZN14PeriodicThreadD2Ev:0000000000000034 .LFE35
     /tmp/cc6SGE6u.s:3369   .debug_loc:0000000000000082 .LLST1
     /tmp/cc6SGE6u.s:130    .text._ZN14PeriodicThreadD2Ev:0000000000000024 .LVL5
     /tmp/cc6SGE6u.s:885    .text:00000000000003c0 .LFB33
     /tmp/cc6SGE6u.s:911    .text:00000000000003e8 .LFE33
     /tmp/cc6SGE6u.s:3383   .debug_loc:00000000000000bb .LLST21
     /tmp/cc6SGE6u.s:900    .text:00000000000003d8 .LVL60
     /tmp/cc6SGE6u.s:3787   .debug_str:0000000000000263 .LASF63
     /tmp/cc6SGE6u.s:862    .text:00000000000003c0 .LFE31
     /tmp/cc6SGE6u.s:3397   .debug_loc:00000000000000f4 .LLST19
     /tmp/cc6SGE6u.s:3408   .debug_loc:000000000000012a .LLST20
     /tmp/cc6SGE6u.s:826    .text:0000000000000378 .LVL53
     /tmp/cc6SGE6u.s:837    .text:0000000000000394 .LVL54
     /tmp/cc6SGE6u.s:845    .text:00000000000003a0 .LVL55
     /tmp/cc6SGE6u.s:854    .text:00000000000003b4 .LVL57
     /tmp/cc6SGE6u.s:858    .text:00000000000003c0 .LVL58
     /tmp/cc6SGE6u.s:771    .text:0000000000000328 .LFB29
     /tmp/cc6SGE6u.s:797    .text:0000000000000350 .LFE29
     /tmp/cc6SGE6u.s:3426   .debug_loc:0000000000000176 .LLST18
     /tmp/cc6SGE6u.s:786    .text:0000000000000340 .LVL51
     /tmp/cc6SGE6u.s:740    .text:0000000000000300 .LFB28
     /tmp/cc6SGE6u.s:765    .text:0000000000000328 .LFE28
     /tmp/cc6SGE6u.s:754    .text:0000000000000318 .LVL49
     /tmp/cc6SGE6u.s:706    .text:00000000000002d4 .LFB27
     /tmp/cc6SGE6u.s:734    .text:0000000000000300 .LFE27
     /tmp/cc6SGE6u.s:3440   .debug_loc:00000000000001af .LLST17
     /tmp/cc6SGE6u.s:723    .text:00000000000002f0 .LVL48
     /tmp/cc6SGE6u.s:672    .text:00000000000002a8 .LFB26
     /tmp/cc6SGE6u.s:700    .text:00000000000002d4 .LFE26
     /tmp/cc6SGE6u.s:3454   .debug_loc:00000000000001e8 .LLST15
     /tmp/cc6SGE6u.s:3795   .debug_str:00000000000002af .LASF64
GAS LISTING /tmp/cc6SGE6u.s 			page 30


     /tmp/cc6SGE6u.s:3468   .debug_loc:0000000000000221 .LLST16
     /tmp/cc6SGE6u.s:689    .text:00000000000002c4 .LVL45
     /tmp/cc6SGE6u.s:638    .text:000000000000027c .LFB25
     /tmp/cc6SGE6u.s:666    .text:00000000000002a8 .LFE25
     /tmp/cc6SGE6u.s:3482   .debug_loc:000000000000025a .LLST14
     /tmp/cc6SGE6u.s:655    .text:0000000000000298 .LVL42
     /tmp/cc6SGE6u.s:604    .text:0000000000000250 .LFB24
     /tmp/cc6SGE6u.s:632    .text:000000000000027c .LFE24
     /tmp/cc6SGE6u.s:3496   .debug_loc:0000000000000293 .LLST13
     /tmp/cc6SGE6u.s:621    .text:000000000000026c .LVL39
     /tmp/cc6SGE6u.s:3783   .debug_str:000000000000023b .LASF65
     /tmp/cc6SGE6u.s:303    .text:00000000000000fc .LFB23
     /tmp/cc6SGE6u.s:336    .text:000000000000013c .LFE23
     /tmp/cc6SGE6u.s:3510   .debug_loc:00000000000002cc .LLST6
     /tmp/cc6SGE6u.s:320    .text:000000000000011c .LVL18
     /tmp/cc6SGE6u.s:323    .text:0000000000000128 .LVL19
     /tmp/cc6SGE6u.s:3739   .debug_str:00000000000000e4 .LASF66
     /tmp/cc6SGE6u.s:150    .text:0000000000000034 .LFB21
     /tmp/cc6SGE6u.s:185    .text:000000000000006c .LFE21
     /tmp/cc6SGE6u.s:3528   .debug_loc:0000000000000318 .LLST2
     /tmp/cc6SGE6u.s:173    .text:000000000000005c .LVL8
     /tmp/cc6SGE6u.s:3717   .debug_str:000000000000003b .LASF67
     /tmp/cc6SGE6u.s:3729   .debug_str:0000000000000093 .LASF68
     /tmp/cc6SGE6u.s:563    .text:0000000000000218 .LFB18
     /tmp/cc6SGE6u.s:596    .text:0000000000000250 .LFE18
     /tmp/cc6SGE6u.s:3542   .debug_loc:0000000000000351 .LLST11
     /tmp/cc6SGE6u.s:3562   .debug_loc:000000000000039f .LLST12
     /tmp/cc6SGE6u.s:584    .text:0000000000000240 .LVL36
     /tmp/cc6SGE6u.s:3719   .debug_str:0000000000000040 .LASF69
     /tmp/cc6SGE6u.s:264    .text:00000000000000bc .LFB16
     /tmp/cc6SGE6u.s:297    .text:00000000000000fc .LFE16
     /tmp/cc6SGE6u.s:3576   .debug_loc:00000000000003d8 .LLST5
     /tmp/cc6SGE6u.s:281    .text:00000000000000dc .LVL14
     /tmp/cc6SGE6u.s:284    .text:00000000000000e8 .LVL15
     /tmp/cc6SGE6u.s:3905   .debug_str:00000000000005da .LASF70
     /tmp/cc6SGE6u.s:62     .text:0000000000000000 .LFB14
     /tmp/cc6SGE6u.s:96     .text:0000000000000034 .LFE14
     /tmp/cc6SGE6u.s:3594   .debug_loc:0000000000000424 .LLST0
     /tmp/cc6SGE6u.s:84     .text:0000000000000024 .LVL3
     /tmp/cc6SGE6u.s:527    .text:00000000000001e4 .LFB12
     /tmp/cc6SGE6u.s:557    .text:0000000000000218 .LFE12
     /tmp/cc6SGE6u.s:3608   .debug_loc:000000000000045d .LLST10
     /tmp/cc6SGE6u.s:546    .text:0000000000000208 .LVL33
     /tmp/cc6SGE6u.s:3925   .debug_str:0000000000000728 .LASF71
     /tmp/cc6SGE6u.s:490    .text:00000000000001b8 .LFB10
     /tmp/cc6SGE6u.s:519    .text:00000000000001e4 .LFE10
     /tmp/cc6SGE6u.s:459    .text:0000000000000190 .LFB8
     /tmp/cc6SGE6u.s:484    .text:00000000000001b8 .LFE8
     /tmp/cc6SGE6u.s:473    .text:00000000000001a8 .LVL29
     /tmp/cc6SGE6u.s:427    .text:0000000000000168 .LFB7
     /tmp/cc6SGE6u.s:453    .text:0000000000000190 .LFE7
     /tmp/cc6SGE6u.s:3628   .debug_loc:00000000000004ab .LLST9
     /tmp/cc6SGE6u.s:442    .text:0000000000000180 .LVL28
     /tmp/cc6SGE6u.s:3799   .debug_str:00000000000002c4 .LASF72
     /tmp/cc6SGE6u.s:390    .text:000000000000013c .LFB5
     /tmp/cc6SGE6u.s:419    .text:0000000000000168 .LFE5
     /tmp/cc6SGE6u.s:3899   .debug_str:00000000000005a5 .LASF73
GAS LISTING /tmp/cc6SGE6u.s 			page 31


     /tmp/cc6SGE6u.s:3945   .debug_str:00000000000007c9 .LASF74
     /tmp/cc6SGE6u.s:232    .text:0000000000000094 .LFB3
     /tmp/cc6SGE6u.s:258    .text:00000000000000bc .LFE3
     /tmp/cc6SGE6u.s:3642   .debug_loc:00000000000004e4 .LLST4
     /tmp/cc6SGE6u.s:247    .text:00000000000000ac .LVL12
     /tmp/cc6SGE6u.s:3929   .debug_str:000000000000073f .LASF75
     /tmp/cc6SGE6u.s:3825   .debug_str:000000000000036c .LASF76
     /tmp/cc6SGE6u.s:200    .text:000000000000006c .LFB2
     /tmp/cc6SGE6u.s:226    .text:0000000000000094 .LFE2
     /tmp/cc6SGE6u.s:3901   .debug_str:00000000000005b5 .LASF77
     /tmp/cc6SGE6u.s:3656   .debug_loc:000000000000051d .LLST3
     /tmp/cc6SGE6u.s:215    .text:0000000000000084 .LVL10
     /tmp/cc6SGE6u.s:37     .text._ZN14PeriodicThread18periodicActivationEv:0000000000000000 .LFB1
     /tmp/cc6SGE6u.s:55     .text._ZN14PeriodicThread18periodicActivationEv:0000000000000018 .LFE1
     /tmp/cc6SGE6u.s:11     .text._ZN6Thread3runEv:0000000000000000 .LFB0
     /tmp/cc6SGE6u.s:30     .text._ZN6Thread3runEv:0000000000000018 .LFE0
     /tmp/cc6SGE6u.s:3857   .debug_str:000000000000046e .LASF78
     /tmp/cc6SGE6u.s:3725   .debug_str:000000000000007d .LASF80
     /tmp/cc6SGE6u.s:3935   .debug_str:0000000000000775 .LASF79
     /tmp/cc6SGE6u.s:3889   .debug_str:000000000000055f .LASF81
     /tmp/cc6SGE6u.s:3797   .debug_str:00000000000002b5 .LASF118
     /tmp/cc6SGE6u.s:3757   .debug_str:0000000000000192 .LASF119
     /tmp/cc6SGE6u.s:3781   .debug_str:0000000000000232 .LASF82
     /tmp/cc6SGE6u.s:3893   .debug_str:0000000000000580 .LASF83
     /tmp/cc6SGE6u.s:3769   .debug_str:00000000000001e9 .LASF85
     /tmp/cc6SGE6u.s:3917   .debug_str:00000000000006ed .LASF86
     /tmp/cc6SGE6u.s:3829   .debug_str:0000000000000392 .LASF87
     /tmp/cc6SGE6u.s:3773   .debug_str:0000000000000205 .LASF88
     /tmp/cc6SGE6u.s:3839   .debug_str:00000000000003dd .LASF89
     /tmp/cc6SGE6u.s:3761   .debug_str:00000000000001c0 .LASF90
     /tmp/cc6SGE6u.s:3741   .debug_str:00000000000000f6 .LASF91
     /tmp/cc6SGE6u.s:3751   .debug_str:0000000000000151 .LASF92
     /tmp/cc6SGE6u.s:3867   .debug_str:00000000000004ad .LASF93
     /tmp/cc6SGE6u.s:3815   .debug_str:000000000000031b .LASF94
     /tmp/cc6SGE6u.s:3721   .debug_str:000000000000004f .LASF95
     /tmp/cc6SGE6u.s:3775   .debug_str:0000000000000213 .LASF96
     /tmp/cc6SGE6u.s:3941   .debug_str:000000000000079e .LASF97
     /tmp/cc6SGE6u.s:3765   .debug_str:00000000000001d2 .LASF98
     /tmp/cc6SGE6u.s:3875   .debug_str:00000000000004f0 .LASF99
     /tmp/cc6SGE6u.s:3823   .debug_str:000000000000035c .LASF100
     /tmp/cc6SGE6u.s:3931   .debug_str:000000000000074c .LASF101
     /tmp/cc6SGE6u.s:3767   .debug_str:00000000000001e0 .LASF102
     /tmp/cc6SGE6u.s:3755   .debug_str:0000000000000184 .LASF103
     /tmp/cc6SGE6u.s:3897   .debug_str:000000000000059b .LASF104
     /tmp/cc6SGE6u.s:346    .text._ZN14PeriodicThreadD0Ev:0000000000000000 .LVL21
     /tmp/cc6SGE6u.s:378    .text._ZN14PeriodicThreadD0Ev:0000000000000044 .LVL25
     /tmp/cc6SGE6u.s:358    .text._ZN14PeriodicThreadD0Ev:0000000000000018 .LVL22
     /tmp/cc6SGE6u.s:116    .text._ZN14PeriodicThreadD2Ev:0000000000000000 .LVL4
     /tmp/cc6SGE6u.s:888    .text:00000000000003c0 .LVL59
     /tmp/cc6SGE6u.s:808    .text:0000000000000350 .LVL52
     /tmp/cc6SGE6u.s:850    .text:00000000000003a8 .LVL56
     /tmp/cc6SGE6u.s:774    .text:0000000000000328 .LVL50
     /tmp/cc6SGE6u.s:709    .text:00000000000002d4 .LVL46
     /tmp/cc6SGE6u.s:721    .text:00000000000002e8 .LVL47
     /tmp/cc6SGE6u.s:675    .text:00000000000002a8 .LVL43
     /tmp/cc6SGE6u.s:687    .text:00000000000002bc .LVL44
     /tmp/cc6SGE6u.s:641    .text:000000000000027c .LVL40
GAS LISTING /tmp/cc6SGE6u.s 			page 32


     /tmp/cc6SGE6u.s:653    .text:0000000000000290 .LVL41
     /tmp/cc6SGE6u.s:607    .text:0000000000000250 .LVL37
     /tmp/cc6SGE6u.s:619    .text:0000000000000264 .LVL38
     /tmp/cc6SGE6u.s:306    .text:00000000000000fc .LVL17
     /tmp/cc6SGE6u.s:331    .text:0000000000000134 .LVL20
     /tmp/cc6SGE6u.s:155    .text:0000000000000034 .LVL6
     /tmp/cc6SGE6u.s:171    .text:0000000000000054 .LVL7
     /tmp/cc6SGE6u.s:566    .text:0000000000000218 .LVL34
     /tmp/cc6SGE6u.s:582    .text:0000000000000238 .LVL35
     /tmp/cc6SGE6u.s:267    .text:00000000000000bc .LVL13
     /tmp/cc6SGE6u.s:292    .text:00000000000000f4 .LVL16
     /tmp/cc6SGE6u.s:68     .text:0000000000000000 .LVL2
     /tmp/cc6SGE6u.s:530    .text:00000000000001e4 .LVL31
     /tmp/cc6SGE6u.s:544    .text:0000000000000200 .LVL32
     /tmp/cc6SGE6u.s:430    .text:0000000000000168 .LVL27
     /tmp/cc6SGE6u.s:235    .text:0000000000000094 .LVL11
     /tmp/cc6SGE6u.s:203    .text:000000000000006c .LVL9
     /tmp/cc6SGE6u.s:951    .debug_info:0000000000000000 .Ldebug_info0
     /tmp/cc6SGE6u.s:5      .text:0000000000000000 .Ltext0
     /tmp/cc6SGE6u.s:947    .text:00000000000003e8 .Letext0
     /tmp/cc6SGE6u.s:99     .gcc_except_table:0000000000000000 .LLSDA14
     /tmp/cc6SGE6u.s:187    .gcc_except_table:0000000000000004 .LLSDA21
     /tmp/cc6SGE6u.s:864    .gcc_except_table:0000000000000008 .LLSDA31
                           .group:0000000000000000 _ZN14PeriodicThreadD5Ev

UNDEFINED SYMBOLS
_Z11thread_exitv
__gxx_personality_v0
_Z9sem_closeP4_sem
_Z9mem_allocm
_Z8mem_freePv
_Z10time_sleepm
_Z15thread_dispatchv
_Z13thread_createPP7_threadPFvPvES2_
_Z8sem_openPP4_semj
_Z8sem_waitP4_sem
_Z10sem_signalP4_sem
_Z13sem_timedwaitP4_semm
_Z11sem_trywaitP4_sem
_Z4getcv
_Z4putcc
_Unwind_Resume
